
Lab8.1.elf:     file format elf32-littlearm

Sections:
Idx Name          Size      VMA       LMA       File off  Algn
  0 .isr_vector   00000194  08000000  08000000  00001000  2**0
                  CONTENTS, ALLOC, LOAD, READONLY, DATA
  1 .text         00002284  08000194  08000194  00001194  2**2
                  CONTENTS, ALLOC, LOAD, READONLY, CODE
  2 .rodata       00000028  08002418  08002418  00003418  2**2
                  CONTENTS, ALLOC, LOAD, READONLY, DATA
  3 .ARM.extab    00000000  08002440  08002440  00004008  2**0
                  CONTENTS, READONLY
  4 .ARM          00000008  08002440  08002440  00003440  2**2
                  CONTENTS, ALLOC, LOAD, READONLY, DATA
  5 .preinit_array 00000000  08002448  08002448  00004008  2**0
                  CONTENTS, ALLOC, LOAD, DATA
  6 .init_array   00000004  08002448  08002448  00003448  2**2
                  CONTENTS, ALLOC, LOAD, READONLY, DATA
  7 .fini_array   00000004  0800244c  0800244c  0000344c  2**2
                  CONTENTS, ALLOC, LOAD, READONLY, DATA
  8 .data         00000008  20000000  08002450  00004000  2**2
                  CONTENTS, ALLOC, LOAD, DATA
  9 .bss          0000001c  20000008  08002458  00004008  2**2
                  ALLOC
 10 ._user_heap_stack 00000604  20000024  08002458  00004024  2**0
                  ALLOC
 11 .ARM.attributes 00000030  00000000  00000000  00004008  2**0
                  CONTENTS, READONLY
 12 .debug_info   000051a9  00000000  00000000  00004038  2**0
                  CONTENTS, READONLY, DEBUGGING, OCTETS
 13 .debug_abbrev 000010f8  00000000  00000000  000091e1  2**0
                  CONTENTS, READONLY, DEBUGGING, OCTETS
 14 .debug_aranges 00000698  00000000  00000000  0000a2e0  2**3
                  CONTENTS, READONLY, DEBUGGING, OCTETS
 15 .debug_rnglists 000004da  00000000  00000000  0000a978  2**0
                  CONTENTS, READONLY, DEBUGGING, OCTETS
 16 .debug_macro  0001107a  00000000  00000000  0000ae52  2**0
                  CONTENTS, READONLY, DEBUGGING, OCTETS
 17 .debug_line   00004f67  00000000  00000000  0001becc  2**0
                  CONTENTS, READONLY, DEBUGGING, OCTETS
 18 .debug_str    00060dc8  00000000  00000000  00020e33  2**0
                  CONTENTS, READONLY, DEBUGGING, OCTETS
 19 .comment      00000043  00000000  00000000  00081bfb  2**0
                  CONTENTS, READONLY
 20 .debug_frame  00001af4  00000000  00000000  00081c40  2**2
                  CONTENTS, READONLY, DEBUGGING, OCTETS
 21 .debug_line_str 00000063  00000000  00000000  00083734  2**0
                  CONTENTS, READONLY, DEBUGGING, OCTETS

Disassembly of section .text:

08000194 <__do_global_dtors_aux>:
 8000194:	b510      	push	{r4, lr}
 8000196:	4c05      	ldr	r4, [pc, #20]	@ (80001ac <__do_global_dtors_aux+0x18>)
 8000198:	7823      	ldrb	r3, [r4, #0]
 800019a:	b933      	cbnz	r3, 80001aa <__do_global_dtors_aux+0x16>
 800019c:	4b04      	ldr	r3, [pc, #16]	@ (80001b0 <__do_global_dtors_aux+0x1c>)
 800019e:	b113      	cbz	r3, 80001a6 <__do_global_dtors_aux+0x12>
 80001a0:	4804      	ldr	r0, [pc, #16]	@ (80001b4 <__do_global_dtors_aux+0x20>)
 80001a2:	f3af 8000 	nop.w
 80001a6:	2301      	movs	r3, #1
 80001a8:	7023      	strb	r3, [r4, #0]
 80001aa:	bd10      	pop	{r4, pc}
 80001ac:	20000008 	.word	0x20000008
 80001b0:	00000000 	.word	0x00000000
 80001b4:	08002400 	.word	0x08002400

080001b8 <frame_dummy>:
 80001b8:	b508      	push	{r3, lr}
 80001ba:	4b03      	ldr	r3, [pc, #12]	@ (80001c8 <frame_dummy+0x10>)
 80001bc:	b11b      	cbz	r3, 80001c6 <frame_dummy+0xe>
 80001be:	4903      	ldr	r1, [pc, #12]	@ (80001cc <frame_dummy+0x14>)
 80001c0:	4803      	ldr	r0, [pc, #12]	@ (80001d0 <frame_dummy+0x18>)
 80001c2:	f3af 8000 	nop.w
 80001c6:	bd08      	pop	{r3, pc}
 80001c8:	00000000 	.word	0x00000000
 80001cc:	2000000c 	.word	0x2000000c
 80001d0:	08002400 	.word	0x08002400

080001d4 <__aeabi_uldivmod>:
 80001d4:	b953      	cbnz	r3, 80001ec <__aeabi_uldivmod+0x18>
 80001d6:	b94a      	cbnz	r2, 80001ec <__aeabi_uldivmod+0x18>
 80001d8:	2900      	cmp	r1, #0
 80001da:	bf08      	it	eq
 80001dc:	2800      	cmpeq	r0, #0
 80001de:	bf1c      	itt	ne
 80001e0:	f04f 31ff 	movne.w	r1, #4294967295
 80001e4:	f04f 30ff 	movne.w	r0, #4294967295
 80001e8:	f000 b988 	b.w	80004fc <__aeabi_idiv0>
 80001ec:	f1ad 0c08 	sub.w	ip, sp, #8
 80001f0:	e96d ce04 	strd	ip, lr, [sp, #-16]!
 80001f4:	f000 f806 	bl	8000204 <__udivmoddi4>
 80001f8:	f8dd e004 	ldr.w	lr, [sp, #4]
 80001fc:	e9dd 2302 	ldrd	r2, r3, [sp, #8]
 8000200:	b004      	add	sp, #16
 8000202:	4770      	bx	lr

08000204 <__udivmoddi4>:
 8000204:	e92d 47f0 	stmdb	sp!, {r4, r5, r6, r7, r8, r9, sl, lr}
 8000208:	9d08      	ldr	r5, [sp, #32]
 800020a:	468e      	mov	lr, r1
 800020c:	4604      	mov	r4, r0
 800020e:	4688      	mov	r8, r1
 8000210:	2b00      	cmp	r3, #0
 8000212:	d14a      	bne.n	80002aa <__udivmoddi4+0xa6>
 8000214:	428a      	cmp	r2, r1
 8000216:	4617      	mov	r7, r2
 8000218:	d962      	bls.n	80002e0 <__udivmoddi4+0xdc>
 800021a:	fab2 f682 	clz	r6, r2
 800021e:	b14e      	cbz	r6, 8000234 <__udivmoddi4+0x30>
 8000220:	f1c6 0320 	rsb	r3, r6, #32
 8000224:	fa01 f806 	lsl.w	r8, r1, r6
 8000228:	fa20 f303 	lsr.w	r3, r0, r3
 800022c:	40b7      	lsls	r7, r6
 800022e:	ea43 0808 	orr.w	r8, r3, r8
 8000232:	40b4      	lsls	r4, r6
 8000234:	ea4f 4e17 	mov.w	lr, r7, lsr #16
 8000238:	fa1f fc87 	uxth.w	ip, r7
 800023c:	fbb8 f1fe 	udiv	r1, r8, lr
 8000240:	0c23      	lsrs	r3, r4, #16
 8000242:	fb0e 8811 	mls	r8, lr, r1, r8
 8000246:	ea43 4308 	orr.w	r3, r3, r8, lsl #16
 800024a:	fb01 f20c 	mul.w	r2, r1, ip
 800024e:	429a      	cmp	r2, r3
 8000250:	d909      	bls.n	8000266 <__udivmoddi4+0x62>
 8000252:	18fb      	adds	r3, r7, r3
 8000254:	f101 30ff 	add.w	r0, r1, #4294967295
 8000258:	f080 80ea 	bcs.w	8000430 <__udivmoddi4+0x22c>
 800025c:	429a      	cmp	r2, r3
 800025e:	f240 80e7 	bls.w	8000430 <__udivmoddi4+0x22c>
 8000262:	3902      	subs	r1, #2
 8000264:	443b      	add	r3, r7
 8000266:	1a9a      	subs	r2, r3, r2
 8000268:	b2a3      	uxth	r3, r4
 800026a:	fbb2 f0fe 	udiv	r0, r2, lr
 800026e:	fb0e 2210 	mls	r2, lr, r0, r2
 8000272:	ea43 4302 	orr.w	r3, r3, r2, lsl #16
 8000276:	fb00 fc0c 	mul.w	ip, r0, ip
 800027a:	459c      	cmp	ip, r3
 800027c:	d909      	bls.n	8000292 <__udivmoddi4+0x8e>
 800027e:	18fb      	adds	r3, r7, r3
 8000280:	f100 32ff 	add.w	r2, r0, #4294967295
 8000284:	f080 80d6 	bcs.w	8000434 <__udivmoddi4+0x230>
 8000288:	459c      	cmp	ip, r3
 800028a:	f240 80d3 	bls.w	8000434 <__udivmoddi4+0x230>
 800028e:	443b      	add	r3, r7
 8000290:	3802      	subs	r0, #2
 8000292:	ea40 4001 	orr.w	r0, r0, r1, lsl #16
 8000296:	eba3 030c 	sub.w	r3, r3, ip
 800029a:	2100      	movs	r1, #0
 800029c:	b11d      	cbz	r5, 80002a6 <__udivmoddi4+0xa2>
 800029e:	40f3      	lsrs	r3, r6
 80002a0:	2200      	movs	r2, #0
 80002a2:	e9c5 3200 	strd	r3, r2, [r5]
 80002a6:	e8bd 87f0 	ldmia.w	sp!, {r4, r5, r6, r7, r8, r9, sl, pc}
 80002aa:	428b      	cmp	r3, r1
 80002ac:	d905      	bls.n	80002ba <__udivmoddi4+0xb6>
 80002ae:	b10d      	cbz	r5, 80002b4 <__udivmoddi4+0xb0>
 80002b0:	e9c5 0100 	strd	r0, r1, [r5]
 80002b4:	2100      	movs	r1, #0
 80002b6:	4608      	mov	r0, r1
 80002b8:	e7f5      	b.n	80002a6 <__udivmoddi4+0xa2>
 80002ba:	fab3 f183 	clz	r1, r3
 80002be:	2900      	cmp	r1, #0
 80002c0:	d146      	bne.n	8000350 <__udivmoddi4+0x14c>
 80002c2:	4573      	cmp	r3, lr
 80002c4:	d302      	bcc.n	80002cc <__udivmoddi4+0xc8>
 80002c6:	4282      	cmp	r2, r0
 80002c8:	f200 8105 	bhi.w	80004d6 <__udivmoddi4+0x2d2>
 80002cc:	1a84      	subs	r4, r0, r2
 80002ce:	eb6e 0203 	sbc.w	r2, lr, r3
 80002d2:	2001      	movs	r0, #1
 80002d4:	4690      	mov	r8, r2
 80002d6:	2d00      	cmp	r5, #0
 80002d8:	d0e5      	beq.n	80002a6 <__udivmoddi4+0xa2>
 80002da:	e9c5 4800 	strd	r4, r8, [r5]
 80002de:	e7e2      	b.n	80002a6 <__udivmoddi4+0xa2>
 80002e0:	2a00      	cmp	r2, #0
 80002e2:	f000 8090 	beq.w	8000406 <__udivmoddi4+0x202>
 80002e6:	fab2 f682 	clz	r6, r2
 80002ea:	2e00      	cmp	r6, #0
 80002ec:	f040 80a4 	bne.w	8000438 <__udivmoddi4+0x234>
 80002f0:	1a8a      	subs	r2, r1, r2
 80002f2:	0c03      	lsrs	r3, r0, #16
 80002f4:	ea4f 4e17 	mov.w	lr, r7, lsr #16
 80002f8:	b280      	uxth	r0, r0
 80002fa:	b2bc      	uxth	r4, r7
 80002fc:	2101      	movs	r1, #1
 80002fe:	fbb2 fcfe 	udiv	ip, r2, lr
 8000302:	fb0e 221c 	mls	r2, lr, ip, r2
 8000306:	ea43 4302 	orr.w	r3, r3, r2, lsl #16
 800030a:	fb04 f20c 	mul.w	r2, r4, ip
 800030e:	429a      	cmp	r2, r3
 8000310:	d907      	bls.n	8000322 <__udivmoddi4+0x11e>
 8000312:	18fb      	adds	r3, r7, r3
 8000314:	f10c 38ff 	add.w	r8, ip, #4294967295
 8000318:	d202      	bcs.n	8000320 <__udivmoddi4+0x11c>
 800031a:	429a      	cmp	r2, r3
 800031c:	f200 80e0 	bhi.w	80004e0 <__udivmoddi4+0x2dc>
 8000320:	46c4      	mov	ip, r8
 8000322:	1a9b      	subs	r3, r3, r2
 8000324:	fbb3 f2fe 	udiv	r2, r3, lr
 8000328:	fb0e 3312 	mls	r3, lr, r2, r3
 800032c:	ea40 4303 	orr.w	r3, r0, r3, lsl #16
 8000330:	fb02 f404 	mul.w	r4, r2, r4
 8000334:	429c      	cmp	r4, r3
 8000336:	d907      	bls.n	8000348 <__udivmoddi4+0x144>
 8000338:	18fb      	adds	r3, r7, r3
 800033a:	f102 30ff 	add.w	r0, r2, #4294967295
 800033e:	d202      	bcs.n	8000346 <__udivmoddi4+0x142>
 8000340:	429c      	cmp	r4, r3
 8000342:	f200 80ca 	bhi.w	80004da <__udivmoddi4+0x2d6>
 8000346:	4602      	mov	r2, r0
 8000348:	1b1b      	subs	r3, r3, r4
 800034a:	ea42 400c 	orr.w	r0, r2, ip, lsl #16
 800034e:	e7a5      	b.n	800029c <__udivmoddi4+0x98>
 8000350:	f1c1 0620 	rsb	r6, r1, #32
 8000354:	408b      	lsls	r3, r1
 8000356:	fa22 f706 	lsr.w	r7, r2, r6
 800035a:	431f      	orrs	r7, r3
 800035c:	fa0e f401 	lsl.w	r4, lr, r1
 8000360:	fa20 f306 	lsr.w	r3, r0, r6
 8000364:	fa2e fe06 	lsr.w	lr, lr, r6
 8000368:	ea4f 4917 	mov.w	r9, r7, lsr #16
 800036c:	4323      	orrs	r3, r4
 800036e:	fa00 f801 	lsl.w	r8, r0, r1
 8000372:	fa1f fc87 	uxth.w	ip, r7
 8000376:	fbbe f0f9 	udiv	r0, lr, r9
 800037a:	0c1c      	lsrs	r4, r3, #16
 800037c:	fb09 ee10 	mls	lr, r9, r0, lr
 8000380:	ea44 440e 	orr.w	r4, r4, lr, lsl #16
 8000384:	fb00 fe0c 	mul.w	lr, r0, ip
 8000388:	45a6      	cmp	lr, r4
 800038a:	fa02 f201 	lsl.w	r2, r2, r1
 800038e:	d909      	bls.n	80003a4 <__udivmoddi4+0x1a0>
 8000390:	193c      	adds	r4, r7, r4
 8000392:	f100 3aff 	add.w	sl, r0, #4294967295
 8000396:	f080 809c 	bcs.w	80004d2 <__udivmoddi4+0x2ce>
 800039a:	45a6      	cmp	lr, r4
 800039c:	f240 8099 	bls.w	80004d2 <__udivmoddi4+0x2ce>
 80003a0:	3802      	subs	r0, #2
 80003a2:	443c      	add	r4, r7
 80003a4:	eba4 040e 	sub.w	r4, r4, lr
 80003a8:	fa1f fe83 	uxth.w	lr, r3
 80003ac:	fbb4 f3f9 	udiv	r3, r4, r9
 80003b0:	fb09 4413 	mls	r4, r9, r3, r4
 80003b4:	ea4e 4404 	orr.w	r4, lr, r4, lsl #16
 80003b8:	fb03 fc0c 	mul.w	ip, r3, ip
 80003bc:	45a4      	cmp	ip, r4
 80003be:	d908      	bls.n	80003d2 <__udivmoddi4+0x1ce>
 80003c0:	193c      	adds	r4, r7, r4
 80003c2:	f103 3eff 	add.w	lr, r3, #4294967295
 80003c6:	f080 8082 	bcs.w	80004ce <__udivmoddi4+0x2ca>
 80003ca:	45a4      	cmp	ip, r4
 80003cc:	d97f      	bls.n	80004ce <__udivmoddi4+0x2ca>
 80003ce:	3b02      	subs	r3, #2
 80003d0:	443c      	add	r4, r7
 80003d2:	ea43 4000 	orr.w	r0, r3, r0, lsl #16
 80003d6:	eba4 040c 	sub.w	r4, r4, ip
 80003da:	fba0 ec02 	umull	lr, ip, r0, r2
 80003de:	4564      	cmp	r4, ip
 80003e0:	4673      	mov	r3, lr
 80003e2:	46e1      	mov	r9, ip
 80003e4:	d362      	bcc.n	80004ac <__udivmoddi4+0x2a8>
 80003e6:	d05f      	beq.n	80004a8 <__udivmoddi4+0x2a4>
 80003e8:	b15d      	cbz	r5, 8000402 <__udivmoddi4+0x1fe>
 80003ea:	ebb8 0203 	subs.w	r2, r8, r3
 80003ee:	eb64 0409 	sbc.w	r4, r4, r9
 80003f2:	fa04 f606 	lsl.w	r6, r4, r6
 80003f6:	fa22 f301 	lsr.w	r3, r2, r1
 80003fa:	431e      	orrs	r6, r3
 80003fc:	40cc      	lsrs	r4, r1
 80003fe:	e9c5 6400 	strd	r6, r4, [r5]
 8000402:	2100      	movs	r1, #0
 8000404:	e74f      	b.n	80002a6 <__udivmoddi4+0xa2>
 8000406:	fbb1 fcf2 	udiv	ip, r1, r2
 800040a:	0c01      	lsrs	r1, r0, #16
 800040c:	ea41 410e 	orr.w	r1, r1, lr, lsl #16
 8000410:	b280      	uxth	r0, r0
 8000412:	ea40 4201 	orr.w	r2, r0, r1, lsl #16
 8000416:	463b      	mov	r3, r7
 8000418:	4638      	mov	r0, r7
 800041a:	463c      	mov	r4, r7
 800041c:	46b8      	mov	r8, r7
 800041e:	46be      	mov	lr, r7
 8000420:	2620      	movs	r6, #32
 8000422:	fbb1 f1f7 	udiv	r1, r1, r7
 8000426:	eba2 0208 	sub.w	r2, r2, r8
 800042a:	ea41 410c 	orr.w	r1, r1, ip, lsl #16
 800042e:	e766      	b.n	80002fe <__udivmoddi4+0xfa>
 8000430:	4601      	mov	r1, r0
 8000432:	e718      	b.n	8000266 <__udivmoddi4+0x62>
 8000434:	4610      	mov	r0, r2
 8000436:	e72c      	b.n	8000292 <__udivmoddi4+0x8e>
 8000438:	f1c6 0220 	rsb	r2, r6, #32
 800043c:	fa2e f302 	lsr.w	r3, lr, r2
 8000440:	40b7      	lsls	r7, r6
 8000442:	40b1      	lsls	r1, r6
 8000444:	fa20 f202 	lsr.w	r2, r0, r2
 8000448:	ea4f 4e17 	mov.w	lr, r7, lsr #16
 800044c:	430a      	orrs	r2, r1
 800044e:	fbb3 f8fe 	udiv	r8, r3, lr
 8000452:	b2bc      	uxth	r4, r7
 8000454:	fb0e 3318 	mls	r3, lr, r8, r3
 8000458:	0c11      	lsrs	r1, r2, #16
 800045a:	ea41 4103 	orr.w	r1, r1, r3, lsl #16
 800045e:	fb08 f904 	mul.w	r9, r8, r4
 8000462:	40b0      	lsls	r0, r6
 8000464:	4589      	cmp	r9, r1
 8000466:	ea4f 4310 	mov.w	r3, r0, lsr #16
 800046a:	b280      	uxth	r0, r0
 800046c:	d93e      	bls.n	80004ec <__udivmoddi4+0x2e8>
 800046e:	1879      	adds	r1, r7, r1
 8000470:	f108 3cff 	add.w	ip, r8, #4294967295
 8000474:	d201      	bcs.n	800047a <__udivmoddi4+0x276>
 8000476:	4589      	cmp	r9, r1
 8000478:	d81f      	bhi.n	80004ba <__udivmoddi4+0x2b6>
 800047a:	eba1 0109 	sub.w	r1, r1, r9
 800047e:	fbb1 f9fe 	udiv	r9, r1, lr
 8000482:	fb09 f804 	mul.w	r8, r9, r4
 8000486:	fb0e 1119 	mls	r1, lr, r9, r1
 800048a:	b292      	uxth	r2, r2
 800048c:	ea42 4201 	orr.w	r2, r2, r1, lsl #16
 8000490:	4542      	cmp	r2, r8
 8000492:	d229      	bcs.n	80004e8 <__udivmoddi4+0x2e4>
 8000494:	18ba      	adds	r2, r7, r2
 8000496:	f109 31ff 	add.w	r1, r9, #4294967295
 800049a:	d2c4      	bcs.n	8000426 <__udivmoddi4+0x222>
 800049c:	4542      	cmp	r2, r8
 800049e:	d2c2      	bcs.n	8000426 <__udivmoddi4+0x222>
 80004a0:	f1a9 0102 	sub.w	r1, r9, #2
 80004a4:	443a      	add	r2, r7
 80004a6:	e7be      	b.n	8000426 <__udivmoddi4+0x222>
 80004a8:	45f0      	cmp	r8, lr
 80004aa:	d29d      	bcs.n	80003e8 <__udivmoddi4+0x1e4>
 80004ac:	ebbe 0302 	subs.w	r3, lr, r2
 80004b0:	eb6c 0c07 	sbc.w	ip, ip, r7
 80004b4:	3801      	subs	r0, #1
 80004b6:	46e1      	mov	r9, ip
 80004b8:	e796      	b.n	80003e8 <__udivmoddi4+0x1e4>
 80004ba:	eba7 0909 	sub.w	r9, r7, r9
 80004be:	4449      	add	r1, r9
 80004c0:	f1a8 0c02 	sub.w	ip, r8, #2
 80004c4:	fbb1 f9fe 	udiv	r9, r1, lr
 80004c8:	fb09 f804 	mul.w	r8, r9, r4
 80004cc:	e7db      	b.n	8000486 <__udivmoddi4+0x282>
 80004ce:	4673      	mov	r3, lr
 80004d0:	e77f      	b.n	80003d2 <__udivmoddi4+0x1ce>
 80004d2:	4650      	mov	r0, sl
 80004d4:	e766      	b.n	80003a4 <__udivmoddi4+0x1a0>
 80004d6:	4608      	mov	r0, r1
 80004d8:	e6fd      	b.n	80002d6 <__udivmoddi4+0xd2>
 80004da:	443b      	add	r3, r7
 80004dc:	3a02      	subs	r2, #2
 80004de:	e733      	b.n	8000348 <__udivmoddi4+0x144>
 80004e0:	f1ac 0c02 	sub.w	ip, ip, #2
 80004e4:	443b      	add	r3, r7
 80004e6:	e71c      	b.n	8000322 <__udivmoddi4+0x11e>
 80004e8:	4649      	mov	r1, r9
 80004ea:	e79c      	b.n	8000426 <__udivmoddi4+0x222>
 80004ec:	eba1 0109 	sub.w	r1, r1, r9
 80004f0:	46c4      	mov	ip, r8
 80004f2:	fbb1 f9fe 	udiv	r9, r1, lr
 80004f6:	fb09 f804 	mul.w	r8, r9, r4
 80004fa:	e7c4      	b.n	8000486 <__udivmoddi4+0x282>

080004fc <__aeabi_idiv0>:
 80004fc:	4770      	bx	lr
 80004fe:	bf00      	nop

08000500 <__NVIC_SetPriorityGrouping>:
           In case of a conflict between priority grouping and available
           priority bits (__NVIC_PRIO_BITS), the smallest possible priority group is set.
  \param [in]      PriorityGroup  Priority grouping field.
 */
__STATIC_INLINE void __NVIC_SetPriorityGrouping(uint32_t PriorityGroup)
{
 8000500:	b480      	push	{r7}
 8000502:	b085      	sub	sp, #20
 8000504:	af00      	add	r7, sp, #0
 8000506:	6078      	str	r0, [r7, #4]
  uint32_t reg_value;
  uint32_t PriorityGroupTmp = (PriorityGroup & (uint32_t)0x07UL);             /* only values 0..7 are used          */
 8000508:	687b      	ldr	r3, [r7, #4]
 800050a:	f003 0307 	and.w	r3, r3, #7
 800050e:	60fb      	str	r3, [r7, #12]

  reg_value  =  SCB->AIRCR;                                                   /* read old register configuration    */
 8000510:	4b0c      	ldr	r3, [pc, #48]	@ (8000544 <__NVIC_SetPriorityGrouping+0x44>)
 8000512:	68db      	ldr	r3, [r3, #12]
 8000514:	60bb      	str	r3, [r7, #8]
  reg_value &= ~((uint32_t)(SCB_AIRCR_VECTKEY_Msk | SCB_AIRCR_PRIGROUP_Msk)); /* clear bits to change               */
 8000516:	68ba      	ldr	r2, [r7, #8]
 8000518:	f64f 03ff 	movw	r3, #63743	@ 0xf8ff
 800051c:	4013      	ands	r3, r2
 800051e:	60bb      	str	r3, [r7, #8]
  reg_value  =  (reg_value                                   |
                ((uint32_t)0x5FAUL << SCB_AIRCR_VECTKEY_Pos) |
                (PriorityGroupTmp << SCB_AIRCR_PRIGROUP_Pos)  );              /* Insert write key and priority group */
 8000520:	68fb      	ldr	r3, [r7, #12]
 8000522:	021a      	lsls	r2, r3, #8
                ((uint32_t)0x5FAUL << SCB_AIRCR_VECTKEY_Pos) |
 8000524:	68bb      	ldr	r3, [r7, #8]
 8000526:	4313      	orrs	r3, r2
  reg_value  =  (reg_value                                   |
 8000528:	f043 63bf 	orr.w	r3, r3, #100139008	@ 0x5f80000
 800052c:	f443 3300 	orr.w	r3, r3, #131072	@ 0x20000
 8000530:	60bb      	str	r3, [r7, #8]
  SCB->AIRCR =  reg_value;
 8000532:	4a04      	ldr	r2, [pc, #16]	@ (8000544 <__NVIC_SetPriorityGrouping+0x44>)
 8000534:	68bb      	ldr	r3, [r7, #8]
 8000536:	60d3      	str	r3, [r2, #12]
}
 8000538:	bf00      	nop
 800053a:	3714      	adds	r7, #20
 800053c:	46bd      	mov	sp, r7
 800053e:	f85d 7b04 	ldr.w	r7, [sp], #4
 8000542:	4770      	bx	lr
 8000544:	e000ed00 	.word	0xe000ed00

08000548 <__NVIC_SetPriority>:
  \param [in]      IRQn  Interrupt number.
  \param [in]  priority  Priority to set.
  \note    The priority cannot be set for every processor exception.
 */
__STATIC_INLINE void __NVIC_SetPriority(IRQn_Type IRQn, uint32_t priority)
{
 8000548:	b480      	push	{r7}
 800054a:	b083      	sub	sp, #12
 800054c:	af00      	add	r7, sp, #0
 800054e:	4603      	mov	r3, r0
 8000550:	6039      	str	r1, [r7, #0]
 8000552:	71fb      	strb	r3, [r7, #7]
  if ((int32_t)(IRQn) >= 0)
 8000554:	f997 3007 	ldrsb.w	r3, [r7, #7]
 8000558:	2b00      	cmp	r3, #0
 800055a:	db0a      	blt.n	8000572 <__NVIC_SetPriority+0x2a>
  {
    NVIC->IP[((uint32_t)IRQn)]               = (uint8_t)((priority << (8U - __NVIC_PRIO_BITS)) & (uint32_t)0xFFUL);
 800055c:	683b      	ldr	r3, [r7, #0]
 800055e:	b2da      	uxtb	r2, r3
 8000560:	490c      	ldr	r1, [pc, #48]	@ (8000594 <__NVIC_SetPriority+0x4c>)
 8000562:	f997 3007 	ldrsb.w	r3, [r7, #7]
 8000566:	0112      	lsls	r2, r2, #4
 8000568:	b2d2      	uxtb	r2, r2
 800056a:	440b      	add	r3, r1
 800056c:	f883 2300 	strb.w	r2, [r3, #768]	@ 0x300
  }
  else
  {
    SCB->SHP[(((uint32_t)IRQn) & 0xFUL)-4UL] = (uint8_t)((priority << (8U - __NVIC_PRIO_BITS)) & (uint32_t)0xFFUL);
  }
}
 8000570:	e00a      	b.n	8000588 <__NVIC_SetPriority+0x40>
    SCB->SHP[(((uint32_t)IRQn) & 0xFUL)-4UL] = (uint8_t)((priority << (8U - __NVIC_PRIO_BITS)) & (uint32_t)0xFFUL);
 8000572:	683b      	ldr	r3, [r7, #0]
 8000574:	b2da      	uxtb	r2, r3
 8000576:	4908      	ldr	r1, [pc, #32]	@ (8000598 <__NVIC_SetPriority+0x50>)
 8000578:	79fb      	ldrb	r3, [r7, #7]
 800057a:	f003 030f 	and.w	r3, r3, #15
 800057e:	3b04      	subs	r3, #4
 8000580:	0112      	lsls	r2, r2, #4
 8000582:	b2d2      	uxtb	r2, r2
 8000584:	440b      	add	r3, r1
 8000586:	761a      	strb	r2, [r3, #24]
}
 8000588:	bf00      	nop
 800058a:	370c      	adds	r7, #12
 800058c:	46bd      	mov	sp, r7
 800058e:	f85d 7b04 	ldr.w	r7, [sp], #4
 8000592:	4770      	bx	lr
 8000594:	e000e100 	.word	0xe000e100
 8000598:	e000ed00 	.word	0xe000ed00

0800059c <SysTick_Config>:
  \note    When the variable <b>__Vendor_SysTickConfig</b> is set to 1, then the
           function <b>SysTick_Config</b> is not included. In this case, the file <b><i>device</i>.h</b>
           must contain a vendor-specific implementation of this function.
 */
__STATIC_INLINE uint32_t SysTick_Config(uint32_t ticks)
{
 800059c:	b580      	push	{r7, lr}
 800059e:	b082      	sub	sp, #8
 80005a0:	af00      	add	r7, sp, #0
 80005a2:	6078      	str	r0, [r7, #4]
  if ((ticks - 1UL) > SysTick_LOAD_RELOAD_Msk)
 80005a4:	687b      	ldr	r3, [r7, #4]
 80005a6:	3b01      	subs	r3, #1
 80005a8:	f1b3 7f80 	cmp.w	r3, #16777216	@ 0x1000000
 80005ac:	d301      	bcc.n	80005b2 <SysTick_Config+0x16>
  {
    return (1UL);                                                   /* Reload value impossible */
 80005ae:	2301      	movs	r3, #1
 80005b0:	e00f      	b.n	80005d2 <SysTick_Config+0x36>
  }

  SysTick->LOAD  = (uint32_t)(ticks - 1UL);                         /* set reload register */
 80005b2:	4a0a      	ldr	r2, [pc, #40]	@ (80005dc <SysTick_Config+0x40>)
 80005b4:	687b      	ldr	r3, [r7, #4]
 80005b6:	3b01      	subs	r3, #1
 80005b8:	6053      	str	r3, [r2, #4]
  NVIC_SetPriority (SysTick_IRQn, (1UL << __NVIC_PRIO_BITS) - 1UL); /* set Priority for Systick Interrupt */
 80005ba:	210f      	movs	r1, #15
 80005bc:	f04f 30ff 	mov.w	r0, #4294967295
 80005c0:	f7ff ffc2 	bl	8000548 <__NVIC_SetPriority>
  SysTick->VAL   = 0UL;                                             /* Load the SysTick Counter Value */
 80005c4:	4b05      	ldr	r3, [pc, #20]	@ (80005dc <SysTick_Config+0x40>)
 80005c6:	2200      	movs	r2, #0
 80005c8:	609a      	str	r2, [r3, #8]
  SysTick->CTRL  = SysTick_CTRL_CLKSOURCE_Msk |
 80005ca:	4b04      	ldr	r3, [pc, #16]	@ (80005dc <SysTick_Config+0x40>)
 80005cc:	2207      	movs	r2, #7
 80005ce:	601a      	str	r2, [r3, #0]
                   SysTick_CTRL_TICKINT_Msk   |
                   SysTick_CTRL_ENABLE_Msk;                         /* Enable SysTick IRQ and SysTick Timer */
  return (0UL);                                                     /* Function successful */
 80005d0:	2300      	movs	r3, #0
}
 80005d2:	4618      	mov	r0, r3
 80005d4:	3708      	adds	r7, #8
 80005d6:	46bd      	mov	sp, r7
 80005d8:	bd80      	pop	{r7, pc}
 80005da:	bf00      	nop
 80005dc:	e000e010 	.word	0xe000e010

080005e0 <LL_RCC_HSI_Enable>:
  * @brief  Enable HSI oscillator
  * @rmtoll CR           HSION         LL_RCC_HSI_Enable
  * @retval None
  */
__STATIC_INLINE void LL_RCC_HSI_Enable(void)
{
 80005e0:	b480      	push	{r7}
 80005e2:	af00      	add	r7, sp, #0
  SET_BIT(RCC->CR, RCC_CR_HSION);
 80005e4:	4b05      	ldr	r3, [pc, #20]	@ (80005fc <LL_RCC_HSI_Enable+0x1c>)
 80005e6:	681b      	ldr	r3, [r3, #0]
 80005e8:	4a04      	ldr	r2, [pc, #16]	@ (80005fc <LL_RCC_HSI_Enable+0x1c>)
 80005ea:	f043 0301 	orr.w	r3, r3, #1
 80005ee:	6013      	str	r3, [r2, #0]
}
 80005f0:	bf00      	nop
 80005f2:	46bd      	mov	sp, r7
 80005f4:	f85d 7b04 	ldr.w	r7, [sp], #4
 80005f8:	4770      	bx	lr
 80005fa:	bf00      	nop
 80005fc:	40023800 	.word	0x40023800

08000600 <LL_RCC_HSI_IsReady>:
  * @brief  Check if HSI clock is ready
  * @rmtoll CR           HSIRDY        LL_RCC_HSI_IsReady
  * @retval State of bit (1 or 0).
  */
__STATIC_INLINE uint32_t LL_RCC_HSI_IsReady(void)
{
 8000600:	b480      	push	{r7}
 8000602:	af00      	add	r7, sp, #0
  return (READ_BIT(RCC->CR, RCC_CR_HSIRDY) == (RCC_CR_HSIRDY));
 8000604:	4b06      	ldr	r3, [pc, #24]	@ (8000620 <LL_RCC_HSI_IsReady+0x20>)
 8000606:	681b      	ldr	r3, [r3, #0]
 8000608:	f003 0302 	and.w	r3, r3, #2
 800060c:	2b02      	cmp	r3, #2
 800060e:	bf0c      	ite	eq
 8000610:	2301      	moveq	r3, #1
 8000612:	2300      	movne	r3, #0
 8000614:	b2db      	uxtb	r3, r3
}
 8000616:	4618      	mov	r0, r3
 8000618:	46bd      	mov	sp, r7
 800061a:	f85d 7b04 	ldr.w	r7, [sp], #4
 800061e:	4770      	bx	lr
 8000620:	40023800 	.word	0x40023800

08000624 <LL_RCC_HSI_SetCalibTrimming>:
  * @rmtoll CR        HSITRIM       LL_RCC_HSI_SetCalibTrimming
  * @param  Value Between Min_Data = 0 and Max_Data = 31
  * @retval None
  */
__STATIC_INLINE void LL_RCC_HSI_SetCalibTrimming(uint32_t Value)
{
 8000624:	b480      	push	{r7}
 8000626:	b083      	sub	sp, #12
 8000628:	af00      	add	r7, sp, #0
 800062a:	6078      	str	r0, [r7, #4]
  MODIFY_REG(RCC->CR, RCC_CR_HSITRIM, Value << RCC_CR_HSITRIM_Pos);
 800062c:	4b07      	ldr	r3, [pc, #28]	@ (800064c <LL_RCC_HSI_SetCalibTrimming+0x28>)
 800062e:	681b      	ldr	r3, [r3, #0]
 8000630:	f023 02f8 	bic.w	r2, r3, #248	@ 0xf8
 8000634:	687b      	ldr	r3, [r7, #4]
 8000636:	00db      	lsls	r3, r3, #3
 8000638:	4904      	ldr	r1, [pc, #16]	@ (800064c <LL_RCC_HSI_SetCalibTrimming+0x28>)
 800063a:	4313      	orrs	r3, r2
 800063c:	600b      	str	r3, [r1, #0]
}
 800063e:	bf00      	nop
 8000640:	370c      	adds	r7, #12
 8000642:	46bd      	mov	sp, r7
 8000644:	f85d 7b04 	ldr.w	r7, [sp], #4
 8000648:	4770      	bx	lr
 800064a:	bf00      	nop
 800064c:	40023800 	.word	0x40023800

08000650 <LL_RCC_SetSysClkSource>:
  *
  *         (*) value not defined in all devices.
  * @retval None
  */
__STATIC_INLINE void LL_RCC_SetSysClkSource(uint32_t Source)
{
 8000650:	b480      	push	{r7}
 8000652:	b083      	sub	sp, #12
 8000654:	af00      	add	r7, sp, #0
 8000656:	6078      	str	r0, [r7, #4]
  MODIFY_REG(RCC->CFGR, RCC_CFGR_SW, Source);
 8000658:	4b06      	ldr	r3, [pc, #24]	@ (8000674 <LL_RCC_SetSysClkSource+0x24>)
 800065a:	689b      	ldr	r3, [r3, #8]
 800065c:	f023 0203 	bic.w	r2, r3, #3
 8000660:	4904      	ldr	r1, [pc, #16]	@ (8000674 <LL_RCC_SetSysClkSource+0x24>)
 8000662:	687b      	ldr	r3, [r7, #4]
 8000664:	4313      	orrs	r3, r2
 8000666:	608b      	str	r3, [r1, #8]
}
 8000668:	bf00      	nop
 800066a:	370c      	adds	r7, #12
 800066c:	46bd      	mov	sp, r7
 800066e:	f85d 7b04 	ldr.w	r7, [sp], #4
 8000672:	4770      	bx	lr
 8000674:	40023800 	.word	0x40023800

08000678 <LL_RCC_GetSysClkSource>:
  *         @arg @ref LL_RCC_SYS_CLKSOURCE_STATUS_PLLR (*)
  *
  *         (*) value not defined in all devices.
  */
__STATIC_INLINE uint32_t LL_RCC_GetSysClkSource(void)
{
 8000678:	b480      	push	{r7}
 800067a:	af00      	add	r7, sp, #0
  return (uint32_t)(READ_BIT(RCC->CFGR, RCC_CFGR_SWS));
 800067c:	4b04      	ldr	r3, [pc, #16]	@ (8000690 <LL_RCC_GetSysClkSource+0x18>)
 800067e:	689b      	ldr	r3, [r3, #8]
 8000680:	f003 030c 	and.w	r3, r3, #12
}
 8000684:	4618      	mov	r0, r3
 8000686:	46bd      	mov	sp, r7
 8000688:	f85d 7b04 	ldr.w	r7, [sp], #4
 800068c:	4770      	bx	lr
 800068e:	bf00      	nop
 8000690:	40023800 	.word	0x40023800

08000694 <LL_RCC_SetAHBPrescaler>:
  *         @arg @ref LL_RCC_SYSCLK_DIV_256
  *         @arg @ref LL_RCC_SYSCLK_DIV_512
  * @retval None
  */
__STATIC_INLINE void LL_RCC_SetAHBPrescaler(uint32_t Prescaler)
{
 8000694:	b480      	push	{r7}
 8000696:	b083      	sub	sp, #12
 8000698:	af00      	add	r7, sp, #0
 800069a:	6078      	str	r0, [r7, #4]
  MODIFY_REG(RCC->CFGR, RCC_CFGR_HPRE, Prescaler);
 800069c:	4b06      	ldr	r3, [pc, #24]	@ (80006b8 <LL_RCC_SetAHBPrescaler+0x24>)
 800069e:	689b      	ldr	r3, [r3, #8]
 80006a0:	f023 02f0 	bic.w	r2, r3, #240	@ 0xf0
 80006a4:	4904      	ldr	r1, [pc, #16]	@ (80006b8 <LL_RCC_SetAHBPrescaler+0x24>)
 80006a6:	687b      	ldr	r3, [r7, #4]
 80006a8:	4313      	orrs	r3, r2
 80006aa:	608b      	str	r3, [r1, #8]
}
 80006ac:	bf00      	nop
 80006ae:	370c      	adds	r7, #12
 80006b0:	46bd      	mov	sp, r7
 80006b2:	f85d 7b04 	ldr.w	r7, [sp], #4
 80006b6:	4770      	bx	lr
 80006b8:	40023800 	.word	0x40023800

080006bc <LL_RCC_SetAPB1Prescaler>:
  *         @arg @ref LL_RCC_APB1_DIV_8
  *         @arg @ref LL_RCC_APB1_DIV_16
  * @retval None
  */
__STATIC_INLINE void LL_RCC_SetAPB1Prescaler(uint32_t Prescaler)
{
 80006bc:	b480      	push	{r7}
 80006be:	b083      	sub	sp, #12
 80006c0:	af00      	add	r7, sp, #0
 80006c2:	6078      	str	r0, [r7, #4]
  MODIFY_REG(RCC->CFGR, RCC_CFGR_PPRE1, Prescaler);
 80006c4:	4b06      	ldr	r3, [pc, #24]	@ (80006e0 <LL_RCC_SetAPB1Prescaler+0x24>)
 80006c6:	689b      	ldr	r3, [r3, #8]
 80006c8:	f423 52e0 	bic.w	r2, r3, #7168	@ 0x1c00
 80006cc:	4904      	ldr	r1, [pc, #16]	@ (80006e0 <LL_RCC_SetAPB1Prescaler+0x24>)
 80006ce:	687b      	ldr	r3, [r7, #4]
 80006d0:	4313      	orrs	r3, r2
 80006d2:	608b      	str	r3, [r1, #8]
}
 80006d4:	bf00      	nop
 80006d6:	370c      	adds	r7, #12
 80006d8:	46bd      	mov	sp, r7
 80006da:	f85d 7b04 	ldr.w	r7, [sp], #4
 80006de:	4770      	bx	lr
 80006e0:	40023800 	.word	0x40023800

080006e4 <LL_RCC_SetAPB2Prescaler>:
  *         @arg @ref LL_RCC_APB2_DIV_8
  *         @arg @ref LL_RCC_APB2_DIV_16
  * @retval None
  */
__STATIC_INLINE void LL_RCC_SetAPB2Prescaler(uint32_t Prescaler)
{
 80006e4:	b480      	push	{r7}
 80006e6:	b083      	sub	sp, #12
 80006e8:	af00      	add	r7, sp, #0
 80006ea:	6078      	str	r0, [r7, #4]
  MODIFY_REG(RCC->CFGR, RCC_CFGR_PPRE2, Prescaler);
 80006ec:	4b06      	ldr	r3, [pc, #24]	@ (8000708 <LL_RCC_SetAPB2Prescaler+0x24>)
 80006ee:	689b      	ldr	r3, [r3, #8]
 80006f0:	f423 4260 	bic.w	r2, r3, #57344	@ 0xe000
 80006f4:	4904      	ldr	r1, [pc, #16]	@ (8000708 <LL_RCC_SetAPB2Prescaler+0x24>)
 80006f6:	687b      	ldr	r3, [r7, #4]
 80006f8:	4313      	orrs	r3, r2
 80006fa:	608b      	str	r3, [r1, #8]
}
 80006fc:	bf00      	nop
 80006fe:	370c      	adds	r7, #12
 8000700:	46bd      	mov	sp, r7
 8000702:	f85d 7b04 	ldr.w	r7, [sp], #4
 8000706:	4770      	bx	lr
 8000708:	40023800 	.word	0x40023800

0800070c <LL_RCC_SetTIMPrescaler>:
  *         @arg @ref LL_RCC_TIM_PRESCALER_TWICE
  *         @arg @ref LL_RCC_TIM_PRESCALER_FOUR_TIMES
  * @retval None
  */
__STATIC_INLINE void LL_RCC_SetTIMPrescaler(uint32_t Prescaler)
{
 800070c:	b480      	push	{r7}
 800070e:	b083      	sub	sp, #12
 8000710:	af00      	add	r7, sp, #0
 8000712:	6078      	str	r0, [r7, #4]
  MODIFY_REG(RCC->DCKCFGR, RCC_DCKCFGR_TIMPRE, Prescaler);
 8000714:	4b07      	ldr	r3, [pc, #28]	@ (8000734 <LL_RCC_SetTIMPrescaler+0x28>)
 8000716:	f8d3 308c 	ldr.w	r3, [r3, #140]	@ 0x8c
 800071a:	f023 7280 	bic.w	r2, r3, #16777216	@ 0x1000000
 800071e:	4905      	ldr	r1, [pc, #20]	@ (8000734 <LL_RCC_SetTIMPrescaler+0x28>)
 8000720:	687b      	ldr	r3, [r7, #4]
 8000722:	4313      	orrs	r3, r2
 8000724:	f8c1 308c 	str.w	r3, [r1, #140]	@ 0x8c
}
 8000728:	bf00      	nop
 800072a:	370c      	adds	r7, #12
 800072c:	46bd      	mov	sp, r7
 800072e:	f85d 7b04 	ldr.w	r7, [sp], #4
 8000732:	4770      	bx	lr
 8000734:	40023800 	.word	0x40023800

08000738 <LL_RCC_PLL_Enable>:
  * @brief  Enable PLL
  * @rmtoll CR           PLLON         LL_RCC_PLL_Enable
  * @retval None
  */
__STATIC_INLINE void LL_RCC_PLL_Enable(void)
{
 8000738:	b480      	push	{r7}
 800073a:	af00      	add	r7, sp, #0
  SET_BIT(RCC->CR, RCC_CR_PLLON);
 800073c:	4b05      	ldr	r3, [pc, #20]	@ (8000754 <LL_RCC_PLL_Enable+0x1c>)
 800073e:	681b      	ldr	r3, [r3, #0]
 8000740:	4a04      	ldr	r2, [pc, #16]	@ (8000754 <LL_RCC_PLL_Enable+0x1c>)
 8000742:	f043 7380 	orr.w	r3, r3, #16777216	@ 0x1000000
 8000746:	6013      	str	r3, [r2, #0]
}
 8000748:	bf00      	nop
 800074a:	46bd      	mov	sp, r7
 800074c:	f85d 7b04 	ldr.w	r7, [sp], #4
 8000750:	4770      	bx	lr
 8000752:	bf00      	nop
 8000754:	40023800 	.word	0x40023800

08000758 <LL_RCC_PLL_IsReady>:
  * @brief  Check if PLL Ready
  * @rmtoll CR           PLLRDY        LL_RCC_PLL_IsReady
  * @retval State of bit (1 or 0).
  */
__STATIC_INLINE uint32_t LL_RCC_PLL_IsReady(void)
{
 8000758:	b480      	push	{r7}
 800075a:	af00      	add	r7, sp, #0
  return (READ_BIT(RCC->CR, RCC_CR_PLLRDY) == (RCC_CR_PLLRDY));
 800075c:	4b07      	ldr	r3, [pc, #28]	@ (800077c <LL_RCC_PLL_IsReady+0x24>)
 800075e:	681b      	ldr	r3, [r3, #0]
 8000760:	f003 7300 	and.w	r3, r3, #33554432	@ 0x2000000
 8000764:	f1b3 7f00 	cmp.w	r3, #33554432	@ 0x2000000
 8000768:	bf0c      	ite	eq
 800076a:	2301      	moveq	r3, #1
 800076c:	2300      	movne	r3, #0
 800076e:	b2db      	uxtb	r3, r3
}
 8000770:	4618      	mov	r0, r3
 8000772:	46bd      	mov	sp, r7
 8000774:	f85d 7b04 	ldr.w	r7, [sp], #4
 8000778:	4770      	bx	lr
 800077a:	bf00      	nop
 800077c:	40023800 	.word	0x40023800

08000780 <LL_RCC_PLL_ConfigDomain_SYS>:
  *
  *         (*) value not defined in all devices.
  * @retval None
  */
__STATIC_INLINE void LL_RCC_PLL_ConfigDomain_SYS(uint32_t Source, uint32_t PLLM, uint32_t PLLN, uint32_t PLLP_R)
{
 8000780:	b480      	push	{r7}
 8000782:	b085      	sub	sp, #20
 8000784:	af00      	add	r7, sp, #0
 8000786:	60f8      	str	r0, [r7, #12]
 8000788:	60b9      	str	r1, [r7, #8]
 800078a:	607a      	str	r2, [r7, #4]
 800078c:	603b      	str	r3, [r7, #0]
  MODIFY_REG(RCC->PLLCFGR, RCC_PLLCFGR_PLLSRC | RCC_PLLCFGR_PLLM | RCC_PLLCFGR_PLLN,
 800078e:	4b0d      	ldr	r3, [pc, #52]	@ (80007c4 <LL_RCC_PLL_ConfigDomain_SYS+0x44>)
 8000790:	685a      	ldr	r2, [r3, #4]
 8000792:	4b0d      	ldr	r3, [pc, #52]	@ (80007c8 <LL_RCC_PLL_ConfigDomain_SYS+0x48>)
 8000794:	4013      	ands	r3, r2
 8000796:	68f9      	ldr	r1, [r7, #12]
 8000798:	68ba      	ldr	r2, [r7, #8]
 800079a:	4311      	orrs	r1, r2
 800079c:	687a      	ldr	r2, [r7, #4]
 800079e:	0192      	lsls	r2, r2, #6
 80007a0:	430a      	orrs	r2, r1
 80007a2:	4908      	ldr	r1, [pc, #32]	@ (80007c4 <LL_RCC_PLL_ConfigDomain_SYS+0x44>)
 80007a4:	4313      	orrs	r3, r2
 80007a6:	604b      	str	r3, [r1, #4]
             Source | PLLM | PLLN << RCC_PLLCFGR_PLLN_Pos);
  MODIFY_REG(RCC->PLLCFGR, RCC_PLLCFGR_PLLP, PLLP_R);
 80007a8:	4b06      	ldr	r3, [pc, #24]	@ (80007c4 <LL_RCC_PLL_ConfigDomain_SYS+0x44>)
 80007aa:	685b      	ldr	r3, [r3, #4]
 80007ac:	f423 3240 	bic.w	r2, r3, #196608	@ 0x30000
 80007b0:	4904      	ldr	r1, [pc, #16]	@ (80007c4 <LL_RCC_PLL_ConfigDomain_SYS+0x44>)
 80007b2:	683b      	ldr	r3, [r7, #0]
 80007b4:	4313      	orrs	r3, r2
 80007b6:	604b      	str	r3, [r1, #4]
#if defined(RCC_PLLR_SYSCLK_SUPPORT)
  MODIFY_REG(RCC->PLLCFGR, RCC_PLLCFGR_PLLR, PLLP_R);
#endif /* RCC_PLLR_SYSCLK_SUPPORT */
}
 80007b8:	bf00      	nop
 80007ba:	3714      	adds	r7, #20
 80007bc:	46bd      	mov	sp, r7
 80007be:	f85d 7b04 	ldr.w	r7, [sp], #4
 80007c2:	4770      	bx	lr
 80007c4:	40023800 	.word	0x40023800
 80007c8:	ffbf8000 	.word	0xffbf8000

080007cc <LL_AHB1_GRP1_EnableClock>:
  *
  *         (*) value not defined in all devices.
  * @retval None
  */
__STATIC_INLINE void LL_AHB1_GRP1_EnableClock(uint32_t Periphs)
{
 80007cc:	b480      	push	{r7}
 80007ce:	b085      	sub	sp, #20
 80007d0:	af00      	add	r7, sp, #0
 80007d2:	6078      	str	r0, [r7, #4]
  __IO uint32_t tmpreg;
  SET_BIT(RCC->AHB1ENR, Periphs);
 80007d4:	4b08      	ldr	r3, [pc, #32]	@ (80007f8 <LL_AHB1_GRP1_EnableClock+0x2c>)
 80007d6:	6b1a      	ldr	r2, [r3, #48]	@ 0x30
 80007d8:	4907      	ldr	r1, [pc, #28]	@ (80007f8 <LL_AHB1_GRP1_EnableClock+0x2c>)
 80007da:	687b      	ldr	r3, [r7, #4]
 80007dc:	4313      	orrs	r3, r2
 80007de:	630b      	str	r3, [r1, #48]	@ 0x30
  /* Delay after an RCC peripheral clock enabling */
  tmpreg = READ_BIT(RCC->AHB1ENR, Periphs);
 80007e0:	4b05      	ldr	r3, [pc, #20]	@ (80007f8 <LL_AHB1_GRP1_EnableClock+0x2c>)
 80007e2:	6b1a      	ldr	r2, [r3, #48]	@ 0x30
 80007e4:	687b      	ldr	r3, [r7, #4]
 80007e6:	4013      	ands	r3, r2
 80007e8:	60fb      	str	r3, [r7, #12]
  (void)tmpreg;
 80007ea:	68fb      	ldr	r3, [r7, #12]
}
 80007ec:	bf00      	nop
 80007ee:	3714      	adds	r7, #20
 80007f0:	46bd      	mov	sp, r7
 80007f2:	f85d 7b04 	ldr.w	r7, [sp], #4
 80007f6:	4770      	bx	lr
 80007f8:	40023800 	.word	0x40023800

080007fc <LL_APB1_GRP1_EnableClock>:
  *
  *         (*) value not defined in all devices.
  * @retval None
  */
__STATIC_INLINE void LL_APB1_GRP1_EnableClock(uint32_t Periphs)
{
 80007fc:	b480      	push	{r7}
 80007fe:	b085      	sub	sp, #20
 8000800:	af00      	add	r7, sp, #0
 8000802:	6078      	str	r0, [r7, #4]
  __IO uint32_t tmpreg;
  SET_BIT(RCC->APB1ENR, Periphs);
 8000804:	4b08      	ldr	r3, [pc, #32]	@ (8000828 <LL_APB1_GRP1_EnableClock+0x2c>)
 8000806:	6c1a      	ldr	r2, [r3, #64]	@ 0x40
 8000808:	4907      	ldr	r1, [pc, #28]	@ (8000828 <LL_APB1_GRP1_EnableClock+0x2c>)
 800080a:	687b      	ldr	r3, [r7, #4]
 800080c:	4313      	orrs	r3, r2
 800080e:	640b      	str	r3, [r1, #64]	@ 0x40
  /* Delay after an RCC peripheral clock enabling */
  tmpreg = READ_BIT(RCC->APB1ENR, Periphs);
 8000810:	4b05      	ldr	r3, [pc, #20]	@ (8000828 <LL_APB1_GRP1_EnableClock+0x2c>)
 8000812:	6c1a      	ldr	r2, [r3, #64]	@ 0x40
 8000814:	687b      	ldr	r3, [r7, #4]
 8000816:	4013      	ands	r3, r2
 8000818:	60fb      	str	r3, [r7, #12]
  (void)tmpreg;
 800081a:	68fb      	ldr	r3, [r7, #12]
}
 800081c:	bf00      	nop
 800081e:	3714      	adds	r7, #20
 8000820:	46bd      	mov	sp, r7
 8000822:	f85d 7b04 	ldr.w	r7, [sp], #4
 8000826:	4770      	bx	lr
 8000828:	40023800 	.word	0x40023800

0800082c <LL_APB2_GRP1_EnableClock>:
  *
  *         (*) value not defined in all devices.
  * @retval None
  */
__STATIC_INLINE void LL_APB2_GRP1_EnableClock(uint32_t Periphs)
{
 800082c:	b480      	push	{r7}
 800082e:	b085      	sub	sp, #20
 8000830:	af00      	add	r7, sp, #0
 8000832:	6078      	str	r0, [r7, #4]
  __IO uint32_t tmpreg;
  SET_BIT(RCC->APB2ENR, Periphs);
 8000834:	4b08      	ldr	r3, [pc, #32]	@ (8000858 <LL_APB2_GRP1_EnableClock+0x2c>)
 8000836:	6c5a      	ldr	r2, [r3, #68]	@ 0x44
 8000838:	4907      	ldr	r1, [pc, #28]	@ (8000858 <LL_APB2_GRP1_EnableClock+0x2c>)
 800083a:	687b      	ldr	r3, [r7, #4]
 800083c:	4313      	orrs	r3, r2
 800083e:	644b      	str	r3, [r1, #68]	@ 0x44
  /* Delay after an RCC peripheral clock enabling */
  tmpreg = READ_BIT(RCC->APB2ENR, Periphs);
 8000840:	4b05      	ldr	r3, [pc, #20]	@ (8000858 <LL_APB2_GRP1_EnableClock+0x2c>)
 8000842:	6c5a      	ldr	r2, [r3, #68]	@ 0x44
 8000844:	687b      	ldr	r3, [r7, #4]
 8000846:	4013      	ands	r3, r2
 8000848:	60fb      	str	r3, [r7, #12]
  (void)tmpreg;
 800084a:	68fb      	ldr	r3, [r7, #12]
}
 800084c:	bf00      	nop
 800084e:	3714      	adds	r7, #20
 8000850:	46bd      	mov	sp, r7
 8000852:	f85d 7b04 	ldr.w	r7, [sp], #4
 8000856:	4770      	bx	lr
 8000858:	40023800 	.word	0x40023800

0800085c <LL_SYSCFG_SetEXTISource>:
  *         @arg @ref LL_SYSCFG_EXTI_LINE14
  *         @arg @ref LL_SYSCFG_EXTI_LINE15
  * @retval None
  */
__STATIC_INLINE void LL_SYSCFG_SetEXTISource(uint32_t Port, uint32_t Line)
{
 800085c:	b480      	push	{r7}
 800085e:	b087      	sub	sp, #28
 8000860:	af00      	add	r7, sp, #0
 8000862:	6078      	str	r0, [r7, #4]
 8000864:	6039      	str	r1, [r7, #0]
  MODIFY_REG(SYSCFG->EXTICR[Line & 0xFF], (Line >> 16), Port << POSITION_VAL((Line >> 16)));
 8000866:	4a17      	ldr	r2, [pc, #92]	@ (80008c4 <LL_SYSCFG_SetEXTISource+0x68>)
 8000868:	683b      	ldr	r3, [r7, #0]
 800086a:	b2db      	uxtb	r3, r3
 800086c:	3302      	adds	r3, #2
 800086e:	f852 2023 	ldr.w	r2, [r2, r3, lsl #2]
 8000872:	683b      	ldr	r3, [r7, #0]
 8000874:	0c1b      	lsrs	r3, r3, #16
 8000876:	43db      	mvns	r3, r3
 8000878:	ea02 0103 	and.w	r1, r2, r3
 800087c:	683b      	ldr	r3, [r7, #0]
 800087e:	0c1b      	lsrs	r3, r3, #16
 8000880:	613b      	str	r3, [r7, #16]
  uint32_t result;

#if ((defined (__ARM_ARCH_7M__      ) && (__ARM_ARCH_7M__      == 1)) || \
     (defined (__ARM_ARCH_7EM__     ) && (__ARM_ARCH_7EM__     == 1)) || \
     (defined (__ARM_ARCH_8M_MAIN__ ) && (__ARM_ARCH_8M_MAIN__ == 1))    )
   __ASM ("rbit %0, %1" : "=r" (result) : "r" (value) );
 8000882:	693b      	ldr	r3, [r7, #16]
 8000884:	fa93 f3a3 	rbit	r3, r3
 8000888:	60fb      	str	r3, [r7, #12]
    result |= value & 1U;
    s--;
  }
  result <<= s;                        /* shift when v's highest bits are zero */
#endif
  return result;
 800088a:	68fb      	ldr	r3, [r7, #12]
 800088c:	617b      	str	r3, [r7, #20]
     optimisations using the logic "value was passed to __builtin_clz, so it
     is non-zero".
     ARM GCC 7.3 and possibly earlier will optimise this test away, leaving a
     single CLZ instruction.
   */
  if (value == 0U)
 800088e:	697b      	ldr	r3, [r7, #20]
 8000890:	2b00      	cmp	r3, #0
 8000892:	d101      	bne.n	8000898 <LL_SYSCFG_SetEXTISource+0x3c>
  {
    return 32U;
 8000894:	2320      	movs	r3, #32
 8000896:	e003      	b.n	80008a0 <LL_SYSCFG_SetEXTISource+0x44>
  }
  return __builtin_clz(value);
 8000898:	697b      	ldr	r3, [r7, #20]
 800089a:	fab3 f383 	clz	r3, r3
 800089e:	b2db      	uxtb	r3, r3
 80008a0:	461a      	mov	r2, r3
 80008a2:	687b      	ldr	r3, [r7, #4]
 80008a4:	fa03 f202 	lsl.w	r2, r3, r2
 80008a8:	4806      	ldr	r0, [pc, #24]	@ (80008c4 <LL_SYSCFG_SetEXTISource+0x68>)
 80008aa:	683b      	ldr	r3, [r7, #0]
 80008ac:	b2db      	uxtb	r3, r3
 80008ae:	430a      	orrs	r2, r1
 80008b0:	3302      	adds	r3, #2
 80008b2:	f840 2023 	str.w	r2, [r0, r3, lsl #2]
}
 80008b6:	bf00      	nop
 80008b8:	371c      	adds	r7, #28
 80008ba:	46bd      	mov	sp, r7
 80008bc:	f85d 7b04 	ldr.w	r7, [sp], #4
 80008c0:	4770      	bx	lr
 80008c2:	bf00      	nop
 80008c4:	40013800 	.word	0x40013800

080008c8 <LL_FLASH_SetLatency>:
  *         @arg @ref LL_FLASH_LATENCY_14
  *         @arg @ref LL_FLASH_LATENCY_15
  * @retval None
  */
__STATIC_INLINE void LL_FLASH_SetLatency(uint32_t Latency)
{
 80008c8:	b480      	push	{r7}
 80008ca:	b083      	sub	sp, #12
 80008cc:	af00      	add	r7, sp, #0
 80008ce:	6078      	str	r0, [r7, #4]
  MODIFY_REG(FLASH->ACR, FLASH_ACR_LATENCY, Latency);
 80008d0:	4b06      	ldr	r3, [pc, #24]	@ (80008ec <LL_FLASH_SetLatency+0x24>)
 80008d2:	681b      	ldr	r3, [r3, #0]
 80008d4:	f023 0207 	bic.w	r2, r3, #7
 80008d8:	4904      	ldr	r1, [pc, #16]	@ (80008ec <LL_FLASH_SetLatency+0x24>)
 80008da:	687b      	ldr	r3, [r7, #4]
 80008dc:	4313      	orrs	r3, r2
 80008de:	600b      	str	r3, [r1, #0]
}
 80008e0:	bf00      	nop
 80008e2:	370c      	adds	r7, #12
 80008e4:	46bd      	mov	sp, r7
 80008e6:	f85d 7b04 	ldr.w	r7, [sp], #4
 80008ea:	4770      	bx	lr
 80008ec:	40023c00 	.word	0x40023c00

080008f0 <LL_FLASH_GetLatency>:
  *         @arg @ref LL_FLASH_LATENCY_13
  *         @arg @ref LL_FLASH_LATENCY_14
  *         @arg @ref LL_FLASH_LATENCY_15
  */
__STATIC_INLINE uint32_t LL_FLASH_GetLatency(void)
{
 80008f0:	b480      	push	{r7}
 80008f2:	af00      	add	r7, sp, #0
  return (uint32_t)(READ_BIT(FLASH->ACR, FLASH_ACR_LATENCY));
 80008f4:	4b04      	ldr	r3, [pc, #16]	@ (8000908 <LL_FLASH_GetLatency+0x18>)
 80008f6:	681b      	ldr	r3, [r3, #0]
 80008f8:	f003 0307 	and.w	r3, r3, #7
}
 80008fc:	4618      	mov	r0, r3
 80008fe:	46bd      	mov	sp, r7
 8000900:	f85d 7b04 	ldr.w	r7, [sp], #4
 8000904:	4770      	bx	lr
 8000906:	bf00      	nop
 8000908:	40023c00 	.word	0x40023c00

0800090c <LL_PWR_SetRegulVoltageScaling>:
  *         @arg @ref LL_PWR_REGU_VOLTAGE_SCALE3
  *         (*) LL_PWR_REGU_VOLTAGE_SCALE1 is not available for STM32F401xx devices
  * @retval None
  */
__STATIC_INLINE void LL_PWR_SetRegulVoltageScaling(uint32_t VoltageScaling)
{
 800090c:	b480      	push	{r7}
 800090e:	b083      	sub	sp, #12
 8000910:	af00      	add	r7, sp, #0
 8000912:	6078      	str	r0, [r7, #4]
  MODIFY_REG(PWR->CR, PWR_CR_VOS, VoltageScaling);
 8000914:	4b06      	ldr	r3, [pc, #24]	@ (8000930 <LL_PWR_SetRegulVoltageScaling+0x24>)
 8000916:	681b      	ldr	r3, [r3, #0]
 8000918:	f423 4240 	bic.w	r2, r3, #49152	@ 0xc000
 800091c:	4904      	ldr	r1, [pc, #16]	@ (8000930 <LL_PWR_SetRegulVoltageScaling+0x24>)
 800091e:	687b      	ldr	r3, [r7, #4]
 8000920:	4313      	orrs	r3, r2
 8000922:	600b      	str	r3, [r1, #0]
}
 8000924:	bf00      	nop
 8000926:	370c      	adds	r7, #12
 8000928:	46bd      	mov	sp, r7
 800092a:	f85d 7b04 	ldr.w	r7, [sp], #4
 800092e:	4770      	bx	lr
 8000930:	40007000 	.word	0x40007000

08000934 <LL_PWR_IsActiveFlag_VOS>:
  * @brief  Indicate whether the Regulator is ready in the selected voltage range or if its output voltage is still changing to the required voltage level
  * @rmtoll CSR   VOS       LL_PWR_IsActiveFlag_VOS
  * @retval State of bit (1 or 0).
  */
__STATIC_INLINE uint32_t LL_PWR_IsActiveFlag_VOS(void)
{
 8000934:	b480      	push	{r7}
 8000936:	af00      	add	r7, sp, #0
  return (READ_BIT(PWR->CSR, LL_PWR_CSR_VOS) == (LL_PWR_CSR_VOS));
 8000938:	4b07      	ldr	r3, [pc, #28]	@ (8000958 <LL_PWR_IsActiveFlag_VOS+0x24>)
 800093a:	685b      	ldr	r3, [r3, #4]
 800093c:	f403 4380 	and.w	r3, r3, #16384	@ 0x4000
 8000940:	f5b3 4f80 	cmp.w	r3, #16384	@ 0x4000
 8000944:	bf0c      	ite	eq
 8000946:	2301      	moveq	r3, #1
 8000948:	2300      	movne	r3, #0
 800094a:	b2db      	uxtb	r3, r3
}
 800094c:	4618      	mov	r0, r3
 800094e:	46bd      	mov	sp, r7
 8000950:	f85d 7b04 	ldr.w	r7, [sp], #4
 8000954:	4770      	bx	lr
 8000956:	bf00      	nop
 8000958:	40007000 	.word	0x40007000

0800095c <LL_TIM_DisableARRPreload>:
  * @rmtoll CR1          ARPE          LL_TIM_DisableARRPreload
  * @param  TIMx Timer instance
  * @retval None
  */
__STATIC_INLINE void LL_TIM_DisableARRPreload(TIM_TypeDef *TIMx)
{
 800095c:	b480      	push	{r7}
 800095e:	b083      	sub	sp, #12
 8000960:	af00      	add	r7, sp, #0
 8000962:	6078      	str	r0, [r7, #4]
  CLEAR_BIT(TIMx->CR1, TIM_CR1_ARPE);
 8000964:	687b      	ldr	r3, [r7, #4]
 8000966:	681b      	ldr	r3, [r3, #0]
 8000968:	f023 0280 	bic.w	r2, r3, #128	@ 0x80
 800096c:	687b      	ldr	r3, [r7, #4]
 800096e:	601a      	str	r2, [r3, #0]
}
 8000970:	bf00      	nop
 8000972:	370c      	adds	r7, #12
 8000974:	46bd      	mov	sp, r7
 8000976:	f85d 7b04 	ldr.w	r7, [sp], #4
 800097a:	4770      	bx	lr

0800097c <LL_TIM_OC_DisableFast>:
  *         @arg @ref LL_TIM_CHANNEL_CH3
  *         @arg @ref LL_TIM_CHANNEL_CH4
  * @retval None
  */
__STATIC_INLINE void LL_TIM_OC_DisableFast(TIM_TypeDef *TIMx, uint32_t Channel)
{
 800097c:	b480      	push	{r7}
 800097e:	b085      	sub	sp, #20
 8000980:	af00      	add	r7, sp, #0
 8000982:	6078      	str	r0, [r7, #4]
 8000984:	6039      	str	r1, [r7, #0]
  uint8_t iChannel = TIM_GET_CHANNEL_INDEX(Channel);
 8000986:	683b      	ldr	r3, [r7, #0]
 8000988:	2b01      	cmp	r3, #1
 800098a:	d01c      	beq.n	80009c6 <LL_TIM_OC_DisableFast+0x4a>
 800098c:	683b      	ldr	r3, [r7, #0]
 800098e:	2b04      	cmp	r3, #4
 8000990:	d017      	beq.n	80009c2 <LL_TIM_OC_DisableFast+0x46>
 8000992:	683b      	ldr	r3, [r7, #0]
 8000994:	2b10      	cmp	r3, #16
 8000996:	d012      	beq.n	80009be <LL_TIM_OC_DisableFast+0x42>
 8000998:	683b      	ldr	r3, [r7, #0]
 800099a:	2b40      	cmp	r3, #64	@ 0x40
 800099c:	d00d      	beq.n	80009ba <LL_TIM_OC_DisableFast+0x3e>
 800099e:	683b      	ldr	r3, [r7, #0]
 80009a0:	f5b3 7f80 	cmp.w	r3, #256	@ 0x100
 80009a4:	d007      	beq.n	80009b6 <LL_TIM_OC_DisableFast+0x3a>
 80009a6:	683b      	ldr	r3, [r7, #0]
 80009a8:	f5b3 6f80 	cmp.w	r3, #1024	@ 0x400
 80009ac:	d101      	bne.n	80009b2 <LL_TIM_OC_DisableFast+0x36>
 80009ae:	2305      	movs	r3, #5
 80009b0:	e00a      	b.n	80009c8 <LL_TIM_OC_DisableFast+0x4c>
 80009b2:	2306      	movs	r3, #6
 80009b4:	e008      	b.n	80009c8 <LL_TIM_OC_DisableFast+0x4c>
 80009b6:	2304      	movs	r3, #4
 80009b8:	e006      	b.n	80009c8 <LL_TIM_OC_DisableFast+0x4c>
 80009ba:	2303      	movs	r3, #3
 80009bc:	e004      	b.n	80009c8 <LL_TIM_OC_DisableFast+0x4c>
 80009be:	2302      	movs	r3, #2
 80009c0:	e002      	b.n	80009c8 <LL_TIM_OC_DisableFast+0x4c>
 80009c2:	2301      	movs	r3, #1
 80009c4:	e000      	b.n	80009c8 <LL_TIM_OC_DisableFast+0x4c>
 80009c6:	2300      	movs	r3, #0
 80009c8:	73fb      	strb	r3, [r7, #15]
  __IO uint32_t *pReg = (__IO uint32_t *)((uint32_t)((uint32_t)(&TIMx->CCMR1) + OFFSET_TAB_CCMRx[iChannel]));
 80009ca:	687b      	ldr	r3, [r7, #4]
 80009cc:	3318      	adds	r3, #24
 80009ce:	4619      	mov	r1, r3
 80009d0:	7bfb      	ldrb	r3, [r7, #15]
 80009d2:	4a0b      	ldr	r2, [pc, #44]	@ (8000a00 <LL_TIM_OC_DisableFast+0x84>)
 80009d4:	5cd3      	ldrb	r3, [r2, r3]
 80009d6:	440b      	add	r3, r1
 80009d8:	60bb      	str	r3, [r7, #8]
  CLEAR_BIT(*pReg, (TIM_CCMR1_OC1FE << SHIFT_TAB_OCxx[iChannel]));
 80009da:	68bb      	ldr	r3, [r7, #8]
 80009dc:	681a      	ldr	r2, [r3, #0]
 80009de:	7bfb      	ldrb	r3, [r7, #15]
 80009e0:	4908      	ldr	r1, [pc, #32]	@ (8000a04 <LL_TIM_OC_DisableFast+0x88>)
 80009e2:	5ccb      	ldrb	r3, [r1, r3]
 80009e4:	4619      	mov	r1, r3
 80009e6:	2304      	movs	r3, #4
 80009e8:	408b      	lsls	r3, r1
 80009ea:	43db      	mvns	r3, r3
 80009ec:	401a      	ands	r2, r3
 80009ee:	68bb      	ldr	r3, [r7, #8]
 80009f0:	601a      	str	r2, [r3, #0]

}
 80009f2:	bf00      	nop
 80009f4:	3714      	adds	r7, #20
 80009f6:	46bd      	mov	sp, r7
 80009f8:	f85d 7b04 	ldr.w	r7, [sp], #4
 80009fc:	4770      	bx	lr
 80009fe:	bf00      	nop
 8000a00:	08002418 	.word	0x08002418
 8000a04:	08002420 	.word	0x08002420

08000a08 <LL_TIM_SetClockSource>:
  *         @arg @ref LL_TIM_CLOCKSOURCE_EXT_MODE1
  *         @arg @ref LL_TIM_CLOCKSOURCE_EXT_MODE2
  * @retval None
  */
__STATIC_INLINE void LL_TIM_SetClockSource(TIM_TypeDef *TIMx, uint32_t ClockSource)
{
 8000a08:	b480      	push	{r7}
 8000a0a:	b083      	sub	sp, #12
 8000a0c:	af00      	add	r7, sp, #0
 8000a0e:	6078      	str	r0, [r7, #4]
 8000a10:	6039      	str	r1, [r7, #0]
  MODIFY_REG(TIMx->SMCR, TIM_SMCR_SMS | TIM_SMCR_ECE, ClockSource);
 8000a12:	687b      	ldr	r3, [r7, #4]
 8000a14:	689b      	ldr	r3, [r3, #8]
 8000a16:	f423 4380 	bic.w	r3, r3, #16384	@ 0x4000
 8000a1a:	f023 0307 	bic.w	r3, r3, #7
 8000a1e:	683a      	ldr	r2, [r7, #0]
 8000a20:	431a      	orrs	r2, r3
 8000a22:	687b      	ldr	r3, [r7, #4]
 8000a24:	609a      	str	r2, [r3, #8]
}
 8000a26:	bf00      	nop
 8000a28:	370c      	adds	r7, #12
 8000a2a:	46bd      	mov	sp, r7
 8000a2c:	f85d 7b04 	ldr.w	r7, [sp], #4
 8000a30:	4770      	bx	lr

08000a32 <LL_TIM_SetTriggerOutput>:
  *         @arg @ref LL_TIM_TRGO_OC3REF
  *         @arg @ref LL_TIM_TRGO_OC4REF
  * @retval None
  */
__STATIC_INLINE void LL_TIM_SetTriggerOutput(TIM_TypeDef *TIMx, uint32_t TimerSynchronization)
{
 8000a32:	b480      	push	{r7}
 8000a34:	b083      	sub	sp, #12
 8000a36:	af00      	add	r7, sp, #0
 8000a38:	6078      	str	r0, [r7, #4]
 8000a3a:	6039      	str	r1, [r7, #0]
  MODIFY_REG(TIMx->CR2, TIM_CR2_MMS, TimerSynchronization);
 8000a3c:	687b      	ldr	r3, [r7, #4]
 8000a3e:	685b      	ldr	r3, [r3, #4]
 8000a40:	f023 0270 	bic.w	r2, r3, #112	@ 0x70
 8000a44:	683b      	ldr	r3, [r7, #0]
 8000a46:	431a      	orrs	r2, r3
 8000a48:	687b      	ldr	r3, [r7, #4]
 8000a4a:	605a      	str	r2, [r3, #4]
}
 8000a4c:	bf00      	nop
 8000a4e:	370c      	adds	r7, #12
 8000a50:	46bd      	mov	sp, r7
 8000a52:	f85d 7b04 	ldr.w	r7, [sp], #4
 8000a56:	4770      	bx	lr

08000a58 <LL_TIM_DisableMasterSlaveMode>:
  * @rmtoll SMCR         MSM           LL_TIM_DisableMasterSlaveMode
  * @param  TIMx Timer instance
  * @retval None
  */
__STATIC_INLINE void LL_TIM_DisableMasterSlaveMode(TIM_TypeDef *TIMx)
{
 8000a58:	b480      	push	{r7}
 8000a5a:	b083      	sub	sp, #12
 8000a5c:	af00      	add	r7, sp, #0
 8000a5e:	6078      	str	r0, [r7, #4]
  CLEAR_BIT(TIMx->SMCR, TIM_SMCR_MSM);
 8000a60:	687b      	ldr	r3, [r7, #4]
 8000a62:	689b      	ldr	r3, [r3, #8]
 8000a64:	f023 0280 	bic.w	r2, r3, #128	@ 0x80
 8000a68:	687b      	ldr	r3, [r7, #4]
 8000a6a:	609a      	str	r2, [r3, #8]
}
 8000a6c:	bf00      	nop
 8000a6e:	370c      	adds	r7, #12
 8000a70:	46bd      	mov	sp, r7
 8000a72:	f85d 7b04 	ldr.w	r7, [sp], #4
 8000a76:	4770      	bx	lr

08000a78 <LL_USART_Enable>:
  * @rmtoll CR1          UE            LL_USART_Enable
  * @param  USARTx USART Instance
  * @retval None
  */
__STATIC_INLINE void LL_USART_Enable(USART_TypeDef *USARTx)
{
 8000a78:	b480      	push	{r7}
 8000a7a:	b083      	sub	sp, #12
 8000a7c:	af00      	add	r7, sp, #0
 8000a7e:	6078      	str	r0, [r7, #4]
  SET_BIT(USARTx->CR1, USART_CR1_UE);
 8000a80:	687b      	ldr	r3, [r7, #4]
 8000a82:	68db      	ldr	r3, [r3, #12]
 8000a84:	f443 5200 	orr.w	r2, r3, #8192	@ 0x2000
 8000a88:	687b      	ldr	r3, [r7, #4]
 8000a8a:	60da      	str	r2, [r3, #12]
}
 8000a8c:	bf00      	nop
 8000a8e:	370c      	adds	r7, #12
 8000a90:	46bd      	mov	sp, r7
 8000a92:	f85d 7b04 	ldr.w	r7, [sp], #4
 8000a96:	4770      	bx	lr

08000a98 <LL_USART_ConfigAsyncMode>:
  *         CR3          HDSEL         LL_USART_ConfigAsyncMode
  * @param  USARTx USART Instance
  * @retval None
  */
__STATIC_INLINE void LL_USART_ConfigAsyncMode(USART_TypeDef *USARTx)
{
 8000a98:	b480      	push	{r7}
 8000a9a:	b083      	sub	sp, #12
 8000a9c:	af00      	add	r7, sp, #0
 8000a9e:	6078      	str	r0, [r7, #4]
  /* In Asynchronous mode, the following bits must be kept cleared:
  - LINEN, CLKEN bits in the USART_CR2 register,
  - SCEN, IREN and HDSEL bits in the USART_CR3 register.*/
  CLEAR_BIT(USARTx->CR2, (USART_CR2_LINEN | USART_CR2_CLKEN));
 8000aa0:	687b      	ldr	r3, [r7, #4]
 8000aa2:	691b      	ldr	r3, [r3, #16]
 8000aa4:	f423 4290 	bic.w	r2, r3, #18432	@ 0x4800
 8000aa8:	687b      	ldr	r3, [r7, #4]
 8000aaa:	611a      	str	r2, [r3, #16]
  CLEAR_BIT(USARTx->CR3, (USART_CR3_SCEN | USART_CR3_IREN | USART_CR3_HDSEL));
 8000aac:	687b      	ldr	r3, [r7, #4]
 8000aae:	695b      	ldr	r3, [r3, #20]
 8000ab0:	f023 022a 	bic.w	r2, r3, #42	@ 0x2a
 8000ab4:	687b      	ldr	r3, [r7, #4]
 8000ab6:	615a      	str	r2, [r3, #20]
}
 8000ab8:	bf00      	nop
 8000aba:	370c      	adds	r7, #12
 8000abc:	46bd      	mov	sp, r7
 8000abe:	f85d 7b04 	ldr.w	r7, [sp], #4
 8000ac2:	4770      	bx	lr

08000ac4 <LL_GPIO_SetPinMode>:
  *         @arg @ref LL_GPIO_MODE_ALTERNATE
  *         @arg @ref LL_GPIO_MODE_ANALOG
  * @retval None
  */
__STATIC_INLINE void LL_GPIO_SetPinMode(GPIO_TypeDef *GPIOx, uint32_t Pin, uint32_t Mode)
{
 8000ac4:	b480      	push	{r7}
 8000ac6:	b08b      	sub	sp, #44	@ 0x2c
 8000ac8:	af00      	add	r7, sp, #0
 8000aca:	60f8      	str	r0, [r7, #12]
 8000acc:	60b9      	str	r1, [r7, #8]
 8000ace:	607a      	str	r2, [r7, #4]
  MODIFY_REG(GPIOx->MODER, (GPIO_MODER_MODER0 << (POSITION_VAL(Pin) * 2U)), (Mode << (POSITION_VAL(Pin) * 2U)));
 8000ad0:	68fb      	ldr	r3, [r7, #12]
 8000ad2:	681a      	ldr	r2, [r3, #0]
 8000ad4:	68bb      	ldr	r3, [r7, #8]
 8000ad6:	617b      	str	r3, [r7, #20]
   __ASM ("rbit %0, %1" : "=r" (result) : "r" (value) );
 8000ad8:	697b      	ldr	r3, [r7, #20]
 8000ada:	fa93 f3a3 	rbit	r3, r3
 8000ade:	613b      	str	r3, [r7, #16]
  return result;
 8000ae0:	693b      	ldr	r3, [r7, #16]
 8000ae2:	61bb      	str	r3, [r7, #24]
  if (value == 0U)
 8000ae4:	69bb      	ldr	r3, [r7, #24]
 8000ae6:	2b00      	cmp	r3, #0
 8000ae8:	d101      	bne.n	8000aee <LL_GPIO_SetPinMode+0x2a>
    return 32U;
 8000aea:	2320      	movs	r3, #32
 8000aec:	e003      	b.n	8000af6 <LL_GPIO_SetPinMode+0x32>
  return __builtin_clz(value);
 8000aee:	69bb      	ldr	r3, [r7, #24]
 8000af0:	fab3 f383 	clz	r3, r3
 8000af4:	b2db      	uxtb	r3, r3
 8000af6:	005b      	lsls	r3, r3, #1
 8000af8:	2103      	movs	r1, #3
 8000afa:	fa01 f303 	lsl.w	r3, r1, r3
 8000afe:	43db      	mvns	r3, r3
 8000b00:	401a      	ands	r2, r3
 8000b02:	68bb      	ldr	r3, [r7, #8]
 8000b04:	623b      	str	r3, [r7, #32]
   __ASM ("rbit %0, %1" : "=r" (result) : "r" (value) );
 8000b06:	6a3b      	ldr	r3, [r7, #32]
 8000b08:	fa93 f3a3 	rbit	r3, r3
 8000b0c:	61fb      	str	r3, [r7, #28]
  return result;
 8000b0e:	69fb      	ldr	r3, [r7, #28]
 8000b10:	627b      	str	r3, [r7, #36]	@ 0x24
  if (value == 0U)
 8000b12:	6a7b      	ldr	r3, [r7, #36]	@ 0x24
 8000b14:	2b00      	cmp	r3, #0
 8000b16:	d101      	bne.n	8000b1c <LL_GPIO_SetPinMode+0x58>
    return 32U;
 8000b18:	2320      	movs	r3, #32
 8000b1a:	e003      	b.n	8000b24 <LL_GPIO_SetPinMode+0x60>
  return __builtin_clz(value);
 8000b1c:	6a7b      	ldr	r3, [r7, #36]	@ 0x24
 8000b1e:	fab3 f383 	clz	r3, r3
 8000b22:	b2db      	uxtb	r3, r3
 8000b24:	005b      	lsls	r3, r3, #1
 8000b26:	6879      	ldr	r1, [r7, #4]
 8000b28:	fa01 f303 	lsl.w	r3, r1, r3
 8000b2c:	431a      	orrs	r2, r3
 8000b2e:	68fb      	ldr	r3, [r7, #12]
 8000b30:	601a      	str	r2, [r3, #0]
}
 8000b32:	bf00      	nop
 8000b34:	372c      	adds	r7, #44	@ 0x2c
 8000b36:	46bd      	mov	sp, r7
 8000b38:	f85d 7b04 	ldr.w	r7, [sp], #4
 8000b3c:	4770      	bx	lr

08000b3e <LL_GPIO_SetPinPull>:
  *         @arg @ref LL_GPIO_PULL_UP
  *         @arg @ref LL_GPIO_PULL_DOWN
  * @retval None
  */
__STATIC_INLINE void LL_GPIO_SetPinPull(GPIO_TypeDef *GPIOx, uint32_t Pin, uint32_t Pull)
{
 8000b3e:	b480      	push	{r7}
 8000b40:	b08b      	sub	sp, #44	@ 0x2c
 8000b42:	af00      	add	r7, sp, #0
 8000b44:	60f8      	str	r0, [r7, #12]
 8000b46:	60b9      	str	r1, [r7, #8]
 8000b48:	607a      	str	r2, [r7, #4]
  MODIFY_REG(GPIOx->PUPDR, (GPIO_PUPDR_PUPDR0 << (POSITION_VAL(Pin) * 2U)), (Pull << (POSITION_VAL(Pin) * 2U)));
 8000b4a:	68fb      	ldr	r3, [r7, #12]
 8000b4c:	68da      	ldr	r2, [r3, #12]
 8000b4e:	68bb      	ldr	r3, [r7, #8]
 8000b50:	617b      	str	r3, [r7, #20]
   __ASM ("rbit %0, %1" : "=r" (result) : "r" (value) );
 8000b52:	697b      	ldr	r3, [r7, #20]
 8000b54:	fa93 f3a3 	rbit	r3, r3
 8000b58:	613b      	str	r3, [r7, #16]
  return result;
 8000b5a:	693b      	ldr	r3, [r7, #16]
 8000b5c:	61bb      	str	r3, [r7, #24]
  if (value == 0U)
 8000b5e:	69bb      	ldr	r3, [r7, #24]
 8000b60:	2b00      	cmp	r3, #0
 8000b62:	d101      	bne.n	8000b68 <LL_GPIO_SetPinPull+0x2a>
    return 32U;
 8000b64:	2320      	movs	r3, #32
 8000b66:	e003      	b.n	8000b70 <LL_GPIO_SetPinPull+0x32>
  return __builtin_clz(value);
 8000b68:	69bb      	ldr	r3, [r7, #24]
 8000b6a:	fab3 f383 	clz	r3, r3
 8000b6e:	b2db      	uxtb	r3, r3
 8000b70:	005b      	lsls	r3, r3, #1
 8000b72:	2103      	movs	r1, #3
 8000b74:	fa01 f303 	lsl.w	r3, r1, r3
 8000b78:	43db      	mvns	r3, r3
 8000b7a:	401a      	ands	r2, r3
 8000b7c:	68bb      	ldr	r3, [r7, #8]
 8000b7e:	623b      	str	r3, [r7, #32]
   __ASM ("rbit %0, %1" : "=r" (result) : "r" (value) );
 8000b80:	6a3b      	ldr	r3, [r7, #32]
 8000b82:	fa93 f3a3 	rbit	r3, r3
 8000b86:	61fb      	str	r3, [r7, #28]
  return result;
 8000b88:	69fb      	ldr	r3, [r7, #28]
 8000b8a:	627b      	str	r3, [r7, #36]	@ 0x24
  if (value == 0U)
 8000b8c:	6a7b      	ldr	r3, [r7, #36]	@ 0x24
 8000b8e:	2b00      	cmp	r3, #0
 8000b90:	d101      	bne.n	8000b96 <LL_GPIO_SetPinPull+0x58>
    return 32U;
 8000b92:	2320      	movs	r3, #32
 8000b94:	e003      	b.n	8000b9e <LL_GPIO_SetPinPull+0x60>
  return __builtin_clz(value);
 8000b96:	6a7b      	ldr	r3, [r7, #36]	@ 0x24
 8000b98:	fab3 f383 	clz	r3, r3
 8000b9c:	b2db      	uxtb	r3, r3
 8000b9e:	005b      	lsls	r3, r3, #1
 8000ba0:	6879      	ldr	r1, [r7, #4]
 8000ba2:	fa01 f303 	lsl.w	r3, r1, r3
 8000ba6:	431a      	orrs	r2, r3
 8000ba8:	68fb      	ldr	r3, [r7, #12]
 8000baa:	60da      	str	r2, [r3, #12]
}
 8000bac:	bf00      	nop
 8000bae:	372c      	adds	r7, #44	@ 0x2c
 8000bb0:	46bd      	mov	sp, r7
 8000bb2:	f85d 7b04 	ldr.w	r7, [sp], #4
 8000bb6:	4770      	bx	lr

08000bb8 <LL_GPIO_ResetOutputPin>:
  *         @arg @ref LL_GPIO_PIN_15
  *         @arg @ref LL_GPIO_PIN_ALL
  * @retval None
  */
__STATIC_INLINE void LL_GPIO_ResetOutputPin(GPIO_TypeDef *GPIOx, uint32_t PinMask)
{
 8000bb8:	b480      	push	{r7}
 8000bba:	b083      	sub	sp, #12
 8000bbc:	af00      	add	r7, sp, #0
 8000bbe:	6078      	str	r0, [r7, #4]
 8000bc0:	6039      	str	r1, [r7, #0]
  WRITE_REG(GPIOx->BSRR, (PinMask << 16));
 8000bc2:	683b      	ldr	r3, [r7, #0]
 8000bc4:	041a      	lsls	r2, r3, #16
 8000bc6:	687b      	ldr	r3, [r7, #4]
 8000bc8:	619a      	str	r2, [r3, #24]
}
 8000bca:	bf00      	nop
 8000bcc:	370c      	adds	r7, #12
 8000bce:	46bd      	mov	sp, r7
 8000bd0:	f85d 7b04 	ldr.w	r7, [sp], #4
 8000bd4:	4770      	bx	lr
	...

08000bd8 <main>:
/**
  * @brief  The application entry point.
  * @retval int
  */
int main(void)
{
 8000bd8:	b580      	push	{r7, lr}
 8000bda:	af00      	add	r7, sp, #0
  /* USER CODE END 1 */

  /* MCU Configuration--------------------------------------------------------*/

  /* Reset of all peripherals, Initializes the Flash interface and the Systick. */
  LL_APB2_GRP1_EnableClock(LL_APB2_GRP1_PERIPH_SYSCFG);
 8000bdc:	f44f 4080 	mov.w	r0, #16384	@ 0x4000
 8000be0:	f7ff fe24 	bl	800082c <LL_APB2_GRP1_EnableClock>
  LL_APB1_GRP1_EnableClock(LL_APB1_GRP1_PERIPH_PWR);
 8000be4:	f04f 5080 	mov.w	r0, #268435456	@ 0x10000000
 8000be8:	f7ff fe08 	bl	80007fc <LL_APB1_GRP1_EnableClock>

  /* System interrupt init*/
  NVIC_SetPriorityGrouping(NVIC_PRIORITYGROUP_4);
 8000bec:	2003      	movs	r0, #3
 8000bee:	f7ff fc87 	bl	8000500 <__NVIC_SetPriorityGrouping>
  /* USER CODE BEGIN Init */

  /* USER CODE END Init */

  /* Configure the system clock */
  SystemClock_Config();
 8000bf2:	f000 f82f 	bl	8000c54 <SystemClock_Config>
  /* USER CODE BEGIN SysInit */

  /* USER CODE END SysInit */

  /* Initialize all configured peripherals */
  MX_GPIO_Init();
 8000bf6:	f000 f919 	bl	8000e2c <MX_GPIO_Init>
  MX_USART2_UART_Init();
 8000bfa:	f000 f8c7 	bl	8000d8c <MX_USART2_UART_Init>
  MX_TIM3_Init();
 8000bfe:	f000 f879 	bl	8000cf4 <MX_TIM3_Init>
  /* USER CODE BEGIN 2 */
  //int flag = 0;
  //int prevFlag = 0;
  LL_TIM_WriteReg(TIM3, CR1, LL_TIM_ReadReg(TIM3,CR1) | 0x01);
 8000c02:	4b10      	ldr	r3, [pc, #64]	@ (8000c44 <main+0x6c>)
 8000c04:	681b      	ldr	r3, [r3, #0]
 8000c06:	4a0f      	ldr	r2, [pc, #60]	@ (8000c44 <main+0x6c>)
 8000c08:	f043 0301 	orr.w	r3, r3, #1
 8000c0c:	6013      	str	r3, [r2, #0]
  	LL_TIM_WriteReg(TIM3, PSC, 0x2903);			// 10499 in decimal
 8000c0e:	4b0d      	ldr	r3, [pc, #52]	@ (8000c44 <main+0x6c>)
 8000c10:	f642 1203 	movw	r2, #10499	@ 0x2903
 8000c14:	629a      	str	r2, [r3, #40]	@ 0x28
  	LL_TIM_WriteReg(TIM3, ARR, 0x01);			// 1 in decimal
 8000c16:	4b0b      	ldr	r3, [pc, #44]	@ (8000c44 <main+0x6c>)
 8000c18:	2201      	movs	r2, #1
 8000c1a:	62da      	str	r2, [r3, #44]	@ 0x2c
  /* USER CODE END 2 */

  /* Infinite loop */
  /* USER CODE BEGIN WHILE */
	SysTick_Config(SystemCoreClock / 1000);
 8000c1c:	4b0a      	ldr	r3, [pc, #40]	@ (8000c48 <main+0x70>)
 8000c1e:	681b      	ldr	r3, [r3, #0]
 8000c20:	4a0a      	ldr	r2, [pc, #40]	@ (8000c4c <main+0x74>)
 8000c22:	fba2 2303 	umull	r2, r3, r2, r3
 8000c26:	099b      	lsrs	r3, r3, #6
 8000c28:	4618      	mov	r0, r3
 8000c2a:	f7ff fcb7 	bl	800059c <SysTick_Config>
  while (1)
  {
	  if(LL_TIM_ReadReg(TIM3,CNT) == 0x01){
 8000c2e:	4b05      	ldr	r3, [pc, #20]	@ (8000c44 <main+0x6c>)
 8000c30:	6a5b      	ldr	r3, [r3, #36]	@ 0x24
 8000c32:	2b01      	cmp	r3, #1
 8000c34:	d1fb      	bne.n	8000c2e <main+0x56>
		  LL_GPIO_WriteReg(GPIOA, ODR, LL_GPIO_ReadReg(GPIOA, ODR) ^ 0x0400);
 8000c36:	4b06      	ldr	r3, [pc, #24]	@ (8000c50 <main+0x78>)
 8000c38:	695b      	ldr	r3, [r3, #20]
 8000c3a:	4a05      	ldr	r2, [pc, #20]	@ (8000c50 <main+0x78>)
 8000c3c:	f483 6380 	eor.w	r3, r3, #1024	@ 0x400
 8000c40:	6153      	str	r3, [r2, #20]
	  if(LL_TIM_ReadReg(TIM3,CNT) == 0x01){
 8000c42:	e7f4      	b.n	8000c2e <main+0x56>
 8000c44:	40000400 	.word	0x40000400
 8000c48:	20000004 	.word	0x20000004
 8000c4c:	10624dd3 	.word	0x10624dd3
 8000c50:	40020000 	.word	0x40020000

08000c54 <SystemClock_Config>:
/**
  * @brief System Clock Configuration
  * @retval None
  */
void SystemClock_Config(void)
{
 8000c54:	b580      	push	{r7, lr}
 8000c56:	af00      	add	r7, sp, #0
  LL_FLASH_SetLatency(LL_FLASH_LATENCY_2);
 8000c58:	2002      	movs	r0, #2
 8000c5a:	f7ff fe35 	bl	80008c8 <LL_FLASH_SetLatency>
  while(LL_FLASH_GetLatency()!= LL_FLASH_LATENCY_2)
 8000c5e:	bf00      	nop
 8000c60:	f7ff fe46 	bl	80008f0 <LL_FLASH_GetLatency>
 8000c64:	4603      	mov	r3, r0
 8000c66:	2b02      	cmp	r3, #2
 8000c68:	d1fa      	bne.n	8000c60 <SystemClock_Config+0xc>
  {
  }
  LL_PWR_SetRegulVoltageScaling(LL_PWR_REGU_VOLTAGE_SCALE2);
 8000c6a:	f44f 4000 	mov.w	r0, #32768	@ 0x8000
 8000c6e:	f7ff fe4d 	bl	800090c <LL_PWR_SetRegulVoltageScaling>
  LL_RCC_HSI_SetCalibTrimming(16);
 8000c72:	2010      	movs	r0, #16
 8000c74:	f7ff fcd6 	bl	8000624 <LL_RCC_HSI_SetCalibTrimming>
  LL_RCC_HSI_Enable();
 8000c78:	f7ff fcb2 	bl	80005e0 <LL_RCC_HSI_Enable>

   /* Wait till HSI is ready */
  while(LL_RCC_HSI_IsReady() != 1)
 8000c7c:	bf00      	nop
 8000c7e:	f7ff fcbf 	bl	8000600 <LL_RCC_HSI_IsReady>
 8000c82:	4603      	mov	r3, r0
 8000c84:	2b01      	cmp	r3, #1
 8000c86:	d1fa      	bne.n	8000c7e <SystemClock_Config+0x2a>
  {

  }
  LL_RCC_PLL_ConfigDomain_SYS(LL_RCC_PLLSOURCE_HSI, LL_RCC_PLLM_DIV_16, 336, LL_RCC_PLLP_DIV_4);
 8000c88:	f44f 3380 	mov.w	r3, #65536	@ 0x10000
 8000c8c:	f44f 72a8 	mov.w	r2, #336	@ 0x150
 8000c90:	2110      	movs	r1, #16
 8000c92:	2000      	movs	r0, #0
 8000c94:	f7ff fd74 	bl	8000780 <LL_RCC_PLL_ConfigDomain_SYS>
  LL_RCC_PLL_Enable();
 8000c98:	f7ff fd4e 	bl	8000738 <LL_RCC_PLL_Enable>

   /* Wait till PLL is ready */
  while(LL_RCC_PLL_IsReady() != 1)
 8000c9c:	bf00      	nop
 8000c9e:	f7ff fd5b 	bl	8000758 <LL_RCC_PLL_IsReady>
 8000ca2:	4603      	mov	r3, r0
 8000ca4:	2b01      	cmp	r3, #1
 8000ca6:	d1fa      	bne.n	8000c9e <SystemClock_Config+0x4a>
  {

  }
  while (LL_PWR_IsActiveFlag_VOS() == 0)
 8000ca8:	bf00      	nop
 8000caa:	f7ff fe43 	bl	8000934 <LL_PWR_IsActiveFlag_VOS>
 8000cae:	4603      	mov	r3, r0
 8000cb0:	2b00      	cmp	r3, #0
 8000cb2:	d0fa      	beq.n	8000caa <SystemClock_Config+0x56>
  {
  }
  LL_RCC_SetAHBPrescaler(LL_RCC_SYSCLK_DIV_1);
 8000cb4:	2000      	movs	r0, #0
 8000cb6:	f7ff fced 	bl	8000694 <LL_RCC_SetAHBPrescaler>
  LL_RCC_SetAPB1Prescaler(LL_RCC_APB1_DIV_2);
 8000cba:	f44f 5080 	mov.w	r0, #4096	@ 0x1000
 8000cbe:	f7ff fcfd 	bl	80006bc <LL_RCC_SetAPB1Prescaler>
  LL_RCC_SetAPB2Prescaler(LL_RCC_APB2_DIV_1);
 8000cc2:	2000      	movs	r0, #0
 8000cc4:	f7ff fd0e 	bl	80006e4 <LL_RCC_SetAPB2Prescaler>
  LL_RCC_SetSysClkSource(LL_RCC_SYS_CLKSOURCE_PLL);
 8000cc8:	2002      	movs	r0, #2
 8000cca:	f7ff fcc1 	bl	8000650 <LL_RCC_SetSysClkSource>

   /* Wait till System clock is ready */
  while(LL_RCC_GetSysClkSource() != LL_RCC_SYS_CLKSOURCE_STATUS_PLL)
 8000cce:	bf00      	nop
 8000cd0:	f7ff fcd2 	bl	8000678 <LL_RCC_GetSysClkSource>
 8000cd4:	4603      	mov	r3, r0
 8000cd6:	2b08      	cmp	r3, #8
 8000cd8:	d1fa      	bne.n	8000cd0 <SystemClock_Config+0x7c>
  {

  }
  LL_Init1msTick(84000000);
 8000cda:	4805      	ldr	r0, [pc, #20]	@ (8000cf0 <SystemClock_Config+0x9c>)
 8000cdc:	f001 fb46 	bl	800236c <LL_Init1msTick>
  LL_SetSystemCoreClock(84000000);
 8000ce0:	4803      	ldr	r0, [pc, #12]	@ (8000cf0 <SystemClock_Config+0x9c>)
 8000ce2:	f001 fb51 	bl	8002388 <LL_SetSystemCoreClock>
  LL_RCC_SetTIMPrescaler(LL_RCC_TIM_PRESCALER_TWICE);
 8000ce6:	2000      	movs	r0, #0
 8000ce8:	f7ff fd10 	bl	800070c <LL_RCC_SetTIMPrescaler>
}
 8000cec:	bf00      	nop
 8000cee:	bd80      	pop	{r7, pc}
 8000cf0:	0501bd00 	.word	0x0501bd00

08000cf4 <MX_TIM3_Init>:
  * @brief TIM3 Initialization Function
  * @param None
  * @retval None
  */
static void MX_TIM3_Init(void)
{
 8000cf4:	b580      	push	{r7, lr}
 8000cf6:	b08e      	sub	sp, #56	@ 0x38
 8000cf8:	af00      	add	r7, sp, #0

  /* USER CODE BEGIN TIM3_Init 0 */

  /* USER CODE END TIM3_Init 0 */

  LL_TIM_InitTypeDef TIM_InitStruct = {0};
 8000cfa:	f107 0324 	add.w	r3, r7, #36	@ 0x24
 8000cfe:	2200      	movs	r2, #0
 8000d00:	601a      	str	r2, [r3, #0]
 8000d02:	605a      	str	r2, [r3, #4]
 8000d04:	609a      	str	r2, [r3, #8]
 8000d06:	60da      	str	r2, [r3, #12]
 8000d08:	611a      	str	r2, [r3, #16]
  LL_TIM_OC_InitTypeDef TIM_OC_InitStruct = {0};
 8000d0a:	1d3b      	adds	r3, r7, #4
 8000d0c:	2220      	movs	r2, #32
 8000d0e:	2100      	movs	r1, #0
 8000d10:	4618      	mov	r0, r3
 8000d12:	f001 fb49 	bl	80023a8 <memset>

  /* Peripheral clock enable */
  LL_APB1_GRP1_EnableClock(LL_APB1_GRP1_PERIPH_TIM3);
 8000d16:	2002      	movs	r0, #2
 8000d18:	f7ff fd70 	bl	80007fc <LL_APB1_GRP1_EnableClock>

  /* USER CODE BEGIN TIM3_Init 1 */

  /* USER CODE END TIM3_Init 1 */
  TIM_InitStruct.Prescaler = 0;
 8000d1c:	2300      	movs	r3, #0
 8000d1e:	84bb      	strh	r3, [r7, #36]	@ 0x24
  TIM_InitStruct.CounterMode = LL_TIM_COUNTERMODE_UP;
 8000d20:	2300      	movs	r3, #0
 8000d22:	62bb      	str	r3, [r7, #40]	@ 0x28
  TIM_InitStruct.Autoreload = 65535;
 8000d24:	f64f 73ff 	movw	r3, #65535	@ 0xffff
 8000d28:	62fb      	str	r3, [r7, #44]	@ 0x2c
  TIM_InitStruct.ClockDivision = LL_TIM_CLOCKDIVISION_DIV1;
 8000d2a:	2300      	movs	r3, #0
 8000d2c:	633b      	str	r3, [r7, #48]	@ 0x30
  LL_TIM_Init(TIM3, &TIM_InitStruct);
 8000d2e:	f107 0324 	add.w	r3, r7, #36	@ 0x24
 8000d32:	4619      	mov	r1, r3
 8000d34:	4814      	ldr	r0, [pc, #80]	@ (8000d88 <MX_TIM3_Init+0x94>)
 8000d36:	f000 fdeb 	bl	8001910 <LL_TIM_Init>
  LL_TIM_DisableARRPreload(TIM3);
 8000d3a:	4813      	ldr	r0, [pc, #76]	@ (8000d88 <MX_TIM3_Init+0x94>)
 8000d3c:	f7ff fe0e 	bl	800095c <LL_TIM_DisableARRPreload>
  LL_TIM_SetClockSource(TIM3, LL_TIM_CLOCKSOURCE_INTERNAL);
 8000d40:	2100      	movs	r1, #0
 8000d42:	4811      	ldr	r0, [pc, #68]	@ (8000d88 <MX_TIM3_Init+0x94>)
 8000d44:	f7ff fe60 	bl	8000a08 <LL_TIM_SetClockSource>
  TIM_OC_InitStruct.OCMode = LL_TIM_OCMODE_FROZEN;
 8000d48:	2300      	movs	r3, #0
 8000d4a:	607b      	str	r3, [r7, #4]
  TIM_OC_InitStruct.OCState = LL_TIM_OCSTATE_DISABLE;
 8000d4c:	2300      	movs	r3, #0
 8000d4e:	60bb      	str	r3, [r7, #8]
  TIM_OC_InitStruct.OCNState = LL_TIM_OCSTATE_DISABLE;
 8000d50:	2300      	movs	r3, #0
 8000d52:	60fb      	str	r3, [r7, #12]
  TIM_OC_InitStruct.CompareValue = 0;
 8000d54:	2300      	movs	r3, #0
 8000d56:	613b      	str	r3, [r7, #16]
  TIM_OC_InitStruct.OCPolarity = LL_TIM_OCPOLARITY_HIGH;
 8000d58:	2300      	movs	r3, #0
 8000d5a:	617b      	str	r3, [r7, #20]
  LL_TIM_OC_Init(TIM3, LL_TIM_CHANNEL_CH1, &TIM_OC_InitStruct);
 8000d5c:	1d3b      	adds	r3, r7, #4
 8000d5e:	461a      	mov	r2, r3
 8000d60:	2101      	movs	r1, #1
 8000d62:	4809      	ldr	r0, [pc, #36]	@ (8000d88 <MX_TIM3_Init+0x94>)
 8000d64:	f000 fe4e 	bl	8001a04 <LL_TIM_OC_Init>
  LL_TIM_OC_DisableFast(TIM3, LL_TIM_CHANNEL_CH1);
 8000d68:	2101      	movs	r1, #1
 8000d6a:	4807      	ldr	r0, [pc, #28]	@ (8000d88 <MX_TIM3_Init+0x94>)
 8000d6c:	f7ff fe06 	bl	800097c <LL_TIM_OC_DisableFast>
  LL_TIM_SetTriggerOutput(TIM3, LL_TIM_TRGO_RESET);
 8000d70:	2100      	movs	r1, #0
 8000d72:	4805      	ldr	r0, [pc, #20]	@ (8000d88 <MX_TIM3_Init+0x94>)
 8000d74:	f7ff fe5d 	bl	8000a32 <LL_TIM_SetTriggerOutput>
  LL_TIM_DisableMasterSlaveMode(TIM3);
 8000d78:	4803      	ldr	r0, [pc, #12]	@ (8000d88 <MX_TIM3_Init+0x94>)
 8000d7a:	f7ff fe6d 	bl	8000a58 <LL_TIM_DisableMasterSlaveMode>
  /* USER CODE BEGIN TIM3_Init 2 */

  /* USER CODE END TIM3_Init 2 */

}
 8000d7e:	bf00      	nop
 8000d80:	3738      	adds	r7, #56	@ 0x38
 8000d82:	46bd      	mov	sp, r7
 8000d84:	bd80      	pop	{r7, pc}
 8000d86:	bf00      	nop
 8000d88:	40000400 	.word	0x40000400

08000d8c <MX_USART2_UART_Init>:
  * @brief USART2 Initialization Function
  * @param None
  * @retval None
  */
static void MX_USART2_UART_Init(void)
{
 8000d8c:	b580      	push	{r7, lr}
 8000d8e:	b08e      	sub	sp, #56	@ 0x38
 8000d90:	af00      	add	r7, sp, #0

  /* USER CODE BEGIN USART2_Init 0 */

  /* USER CODE END USART2_Init 0 */

  LL_USART_InitTypeDef USART_InitStruct = {0};
 8000d92:	f107 031c 	add.w	r3, r7, #28
 8000d96:	2200      	movs	r2, #0
 8000d98:	601a      	str	r2, [r3, #0]
 8000d9a:	605a      	str	r2, [r3, #4]
 8000d9c:	609a      	str	r2, [r3, #8]
 8000d9e:	60da      	str	r2, [r3, #12]
 8000da0:	611a      	str	r2, [r3, #16]
 8000da2:	615a      	str	r2, [r3, #20]
 8000da4:	619a      	str	r2, [r3, #24]

  LL_GPIO_InitTypeDef GPIO_InitStruct = {0};
 8000da6:	1d3b      	adds	r3, r7, #4
 8000da8:	2200      	movs	r2, #0
 8000daa:	601a      	str	r2, [r3, #0]
 8000dac:	605a      	str	r2, [r3, #4]
 8000dae:	609a      	str	r2, [r3, #8]
 8000db0:	60da      	str	r2, [r3, #12]
 8000db2:	611a      	str	r2, [r3, #16]
 8000db4:	615a      	str	r2, [r3, #20]

  /* Peripheral clock enable */
  LL_APB1_GRP1_EnableClock(LL_APB1_GRP1_PERIPH_USART2);
 8000db6:	f44f 3000 	mov.w	r0, #131072	@ 0x20000
 8000dba:	f7ff fd1f 	bl	80007fc <LL_APB1_GRP1_EnableClock>

  LL_AHB1_GRP1_EnableClock(LL_AHB1_GRP1_PERIPH_GPIOA);
 8000dbe:	2001      	movs	r0, #1
 8000dc0:	f7ff fd04 	bl	80007cc <LL_AHB1_GRP1_EnableClock>
  /**USART2 GPIO Configuration
  PA2   ------> USART2_TX
  PA3   ------> USART2_RX
  */
  GPIO_InitStruct.Pin = USART_TX_Pin|USART_RX_Pin;
 8000dc4:	230c      	movs	r3, #12
 8000dc6:	607b      	str	r3, [r7, #4]
  GPIO_InitStruct.Mode = LL_GPIO_MODE_ALTERNATE;
 8000dc8:	2302      	movs	r3, #2
 8000dca:	60bb      	str	r3, [r7, #8]
  GPIO_InitStruct.Speed = LL_GPIO_SPEED_FREQ_LOW;
 8000dcc:	2300      	movs	r3, #0
 8000dce:	60fb      	str	r3, [r7, #12]
  GPIO_InitStruct.OutputType = LL_GPIO_OUTPUT_PUSHPULL;
 8000dd0:	2300      	movs	r3, #0
 8000dd2:	613b      	str	r3, [r7, #16]
  GPIO_InitStruct.Pull = LL_GPIO_PULL_NO;
 8000dd4:	2300      	movs	r3, #0
 8000dd6:	617b      	str	r3, [r7, #20]
  GPIO_InitStruct.Alternate = LL_GPIO_AF_7;
 8000dd8:	2307      	movs	r3, #7
 8000dda:	61bb      	str	r3, [r7, #24]
  LL_GPIO_Init(GPIOA, &GPIO_InitStruct);
 8000ddc:	1d3b      	adds	r3, r7, #4
 8000dde:	4619      	mov	r1, r3
 8000de0:	4810      	ldr	r0, [pc, #64]	@ (8000e24 <MX_USART2_UART_Init+0x98>)
 8000de2:	f000 fb67 	bl	80014b4 <LL_GPIO_Init>

  /* USER CODE BEGIN USART2_Init 1 */

  /* USER CODE END USART2_Init 1 */
  USART_InitStruct.BaudRate = 115200;
 8000de6:	f44f 33e1 	mov.w	r3, #115200	@ 0x1c200
 8000dea:	61fb      	str	r3, [r7, #28]
  USART_InitStruct.DataWidth = LL_USART_DATAWIDTH_8B;
 8000dec:	2300      	movs	r3, #0
 8000dee:	623b      	str	r3, [r7, #32]
  USART_InitStruct.StopBits = LL_USART_STOPBITS_1;
 8000df0:	2300      	movs	r3, #0
 8000df2:	627b      	str	r3, [r7, #36]	@ 0x24
  USART_InitStruct.Parity = LL_USART_PARITY_NONE;
 8000df4:	2300      	movs	r3, #0
 8000df6:	62bb      	str	r3, [r7, #40]	@ 0x28
  USART_InitStruct.TransferDirection = LL_USART_DIRECTION_TX_RX;
 8000df8:	230c      	movs	r3, #12
 8000dfa:	62fb      	str	r3, [r7, #44]	@ 0x2c
  USART_InitStruct.HardwareFlowControl = LL_USART_HWCONTROL_NONE;
 8000dfc:	2300      	movs	r3, #0
 8000dfe:	633b      	str	r3, [r7, #48]	@ 0x30
  USART_InitStruct.OverSampling = LL_USART_OVERSAMPLING_16;
 8000e00:	2300      	movs	r3, #0
 8000e02:	637b      	str	r3, [r7, #52]	@ 0x34
  LL_USART_Init(USART2, &USART_InitStruct);
 8000e04:	f107 031c 	add.w	r3, r7, #28
 8000e08:	4619      	mov	r1, r3
 8000e0a:	4807      	ldr	r0, [pc, #28]	@ (8000e28 <MX_USART2_UART_Init+0x9c>)
 8000e0c:	f001 fa30 	bl	8002270 <LL_USART_Init>
  LL_USART_ConfigAsyncMode(USART2);
 8000e10:	4805      	ldr	r0, [pc, #20]	@ (8000e28 <MX_USART2_UART_Init+0x9c>)
 8000e12:	f7ff fe41 	bl	8000a98 <LL_USART_ConfigAsyncMode>
  LL_USART_Enable(USART2);
 8000e16:	4804      	ldr	r0, [pc, #16]	@ (8000e28 <MX_USART2_UART_Init+0x9c>)
 8000e18:	f7ff fe2e 	bl	8000a78 <LL_USART_Enable>
  /* USER CODE BEGIN USART2_Init 2 */

  /* USER CODE END USART2_Init 2 */

}
 8000e1c:	bf00      	nop
 8000e1e:	3738      	adds	r7, #56	@ 0x38
 8000e20:	46bd      	mov	sp, r7
 8000e22:	bd80      	pop	{r7, pc}
 8000e24:	40020000 	.word	0x40020000
 8000e28:	40004400 	.word	0x40004400

08000e2c <MX_GPIO_Init>:
  * @brief GPIO Initialization Function
  * @param None
  * @retval None
  */
static void MX_GPIO_Init(void)
{
 8000e2c:	b580      	push	{r7, lr}
 8000e2e:	b088      	sub	sp, #32
 8000e30:	af00      	add	r7, sp, #0
  LL_EXTI_InitTypeDef EXTI_InitStruct = {0};
 8000e32:	f107 0318 	add.w	r3, r7, #24
 8000e36:	2200      	movs	r2, #0
 8000e38:	601a      	str	r2, [r3, #0]
 8000e3a:	605a      	str	r2, [r3, #4]
  LL_GPIO_InitTypeDef GPIO_InitStruct = {0};
 8000e3c:	463b      	mov	r3, r7
 8000e3e:	2200      	movs	r2, #0
 8000e40:	601a      	str	r2, [r3, #0]
 8000e42:	605a      	str	r2, [r3, #4]
 8000e44:	609a      	str	r2, [r3, #8]
 8000e46:	60da      	str	r2, [r3, #12]
 8000e48:	611a      	str	r2, [r3, #16]
 8000e4a:	615a      	str	r2, [r3, #20]
  /* USER CODE BEGIN MX_GPIO_Init_1 */

  /* USER CODE END MX_GPIO_Init_1 */

  /* GPIO Ports Clock Enable */
  LL_AHB1_GRP1_EnableClock(LL_AHB1_GRP1_PERIPH_GPIOC);
 8000e4c:	2004      	movs	r0, #4
 8000e4e:	f7ff fcbd 	bl	80007cc <LL_AHB1_GRP1_EnableClock>
  LL_AHB1_GRP1_EnableClock(LL_AHB1_GRP1_PERIPH_GPIOH);
 8000e52:	2080      	movs	r0, #128	@ 0x80
 8000e54:	f7ff fcba 	bl	80007cc <LL_AHB1_GRP1_EnableClock>
  LL_AHB1_GRP1_EnableClock(LL_AHB1_GRP1_PERIPH_GPIOA);
 8000e58:	2001      	movs	r0, #1
 8000e5a:	f7ff fcb7 	bl	80007cc <LL_AHB1_GRP1_EnableClock>
  LL_AHB1_GRP1_EnableClock(LL_AHB1_GRP1_PERIPH_GPIOB);
 8000e5e:	2002      	movs	r0, #2
 8000e60:	f7ff fcb4 	bl	80007cc <LL_AHB1_GRP1_EnableClock>

  /**/
  LL_GPIO_ResetOutputPin(GPIOA, LD2_Pin|OUT1_Pin);
 8000e64:	f44f 6184 	mov.w	r1, #1056	@ 0x420
 8000e68:	481a      	ldr	r0, [pc, #104]	@ (8000ed4 <MX_GPIO_Init+0xa8>)
 8000e6a:	f7ff fea5 	bl	8000bb8 <LL_GPIO_ResetOutputPin>

  /**/
  LL_SYSCFG_SetEXTISource(LL_SYSCFG_EXTI_PORTC, LL_SYSCFG_EXTI_LINE13);
 8000e6e:	491a      	ldr	r1, [pc, #104]	@ (8000ed8 <MX_GPIO_Init+0xac>)
 8000e70:	2002      	movs	r0, #2
 8000e72:	f7ff fcf3 	bl	800085c <LL_SYSCFG_SetEXTISource>

  /**/
  EXTI_InitStruct.Line_0_31 = LL_EXTI_LINE_13;
 8000e76:	f44f 5300 	mov.w	r3, #8192	@ 0x2000
 8000e7a:	61bb      	str	r3, [r7, #24]
  EXTI_InitStruct.LineCommand = ENABLE;
 8000e7c:	2301      	movs	r3, #1
 8000e7e:	773b      	strb	r3, [r7, #28]
  EXTI_InitStruct.Mode = LL_EXTI_MODE_IT;
 8000e80:	2300      	movs	r3, #0
 8000e82:	777b      	strb	r3, [r7, #29]
  EXTI_InitStruct.Trigger = LL_EXTI_TRIGGER_FALLING;
 8000e84:	2302      	movs	r3, #2
 8000e86:	77bb      	strb	r3, [r7, #30]
  LL_EXTI_Init(&EXTI_InitStruct);
 8000e88:	f107 0318 	add.w	r3, r7, #24
 8000e8c:	4618      	mov	r0, r3
 8000e8e:	f000 f947 	bl	8001120 <LL_EXTI_Init>

  /**/
  LL_GPIO_SetPinPull(B1_GPIO_Port, B1_Pin, LL_GPIO_PULL_NO);
 8000e92:	2200      	movs	r2, #0
 8000e94:	f44f 5100 	mov.w	r1, #8192	@ 0x2000
 8000e98:	4810      	ldr	r0, [pc, #64]	@ (8000edc <MX_GPIO_Init+0xb0>)
 8000e9a:	f7ff fe50 	bl	8000b3e <LL_GPIO_SetPinPull>

  /**/
  LL_GPIO_SetPinMode(B1_GPIO_Port, B1_Pin, LL_GPIO_MODE_INPUT);
 8000e9e:	2200      	movs	r2, #0
 8000ea0:	f44f 5100 	mov.w	r1, #8192	@ 0x2000
 8000ea4:	480d      	ldr	r0, [pc, #52]	@ (8000edc <MX_GPIO_Init+0xb0>)
 8000ea6:	f7ff fe0d 	bl	8000ac4 <LL_GPIO_SetPinMode>

  /**/
  GPIO_InitStruct.Pin = LD2_Pin|OUT1_Pin;
 8000eaa:	f44f 6384 	mov.w	r3, #1056	@ 0x420
 8000eae:	603b      	str	r3, [r7, #0]
  GPIO_InitStruct.Mode = LL_GPIO_MODE_OUTPUT;
 8000eb0:	2301      	movs	r3, #1
 8000eb2:	607b      	str	r3, [r7, #4]
  GPIO_InitStruct.Speed = LL_GPIO_SPEED_FREQ_LOW;
 8000eb4:	2300      	movs	r3, #0
 8000eb6:	60bb      	str	r3, [r7, #8]
  GPIO_InitStruct.OutputType = LL_GPIO_OUTPUT_PUSHPULL;
 8000eb8:	2300      	movs	r3, #0
 8000eba:	60fb      	str	r3, [r7, #12]
  GPIO_InitStruct.Pull = LL_GPIO_PULL_NO;
 8000ebc:	2300      	movs	r3, #0
 8000ebe:	613b      	str	r3, [r7, #16]
  LL_GPIO_Init(GPIOA, &GPIO_InitStruct);
 8000ec0:	463b      	mov	r3, r7
 8000ec2:	4619      	mov	r1, r3
 8000ec4:	4803      	ldr	r0, [pc, #12]	@ (8000ed4 <MX_GPIO_Init+0xa8>)
 8000ec6:	f000 faf5 	bl	80014b4 <LL_GPIO_Init>

  /* USER CODE BEGIN MX_GPIO_Init_2 */

  /* USER CODE END MX_GPIO_Init_2 */
}
 8000eca:	bf00      	nop
 8000ecc:	3720      	adds	r7, #32
 8000ece:	46bd      	mov	sp, r7
 8000ed0:	bd80      	pop	{r7, pc}
 8000ed2:	bf00      	nop
 8000ed4:	40020000 	.word	0x40020000
 8000ed8:	00f00003 	.word	0x00f00003
 8000edc:	40020800 	.word	0x40020800

08000ee0 <NMI_Handler>:
/******************************************************************************/
/**
  * @brief This function handles Non maskable interrupt.
  */
void NMI_Handler(void)
{
 8000ee0:	b480      	push	{r7}
 8000ee2:	af00      	add	r7, sp, #0
  /* USER CODE BEGIN NonMaskableInt_IRQn 0 */

  /* USER CODE END NonMaskableInt_IRQn 0 */
  /* USER CODE BEGIN NonMaskableInt_IRQn 1 */
   while (1)
 8000ee4:	bf00      	nop
 8000ee6:	e7fd      	b.n	8000ee4 <NMI_Handler+0x4>

08000ee8 <HardFault_Handler>:

/**
  * @brief This function handles Hard fault interrupt.
  */
void HardFault_Handler(void)
{
 8000ee8:	b480      	push	{r7}
 8000eea:	af00      	add	r7, sp, #0
  /* USER CODE BEGIN HardFault_IRQn 0 */

  /* USER CODE END HardFault_IRQn 0 */
  while (1)
 8000eec:	bf00      	nop
 8000eee:	e7fd      	b.n	8000eec <HardFault_Handler+0x4>

08000ef0 <MemManage_Handler>:

/**
  * @brief This function handles Memory management fault.
  */
void MemManage_Handler(void)
{
 8000ef0:	b480      	push	{r7}
 8000ef2:	af00      	add	r7, sp, #0
  /* USER CODE BEGIN MemoryManagement_IRQn 0 */

  /* USER CODE END MemoryManagement_IRQn 0 */
  while (1)
 8000ef4:	bf00      	nop
 8000ef6:	e7fd      	b.n	8000ef4 <MemManage_Handler+0x4>

08000ef8 <BusFault_Handler>:

/**
  * @brief This function handles Pre-fetch fault, memory access fault.
  */
void BusFault_Handler(void)
{
 8000ef8:	b480      	push	{r7}
 8000efa:	af00      	add	r7, sp, #0
  /* USER CODE BEGIN BusFault_IRQn 0 */

  /* USER CODE END BusFault_IRQn 0 */
  while (1)
 8000efc:	bf00      	nop
 8000efe:	e7fd      	b.n	8000efc <BusFault_Handler+0x4>

08000f00 <UsageFault_Handler>:

/**
  * @brief This function handles Undefined instruction or illegal state.
  */
void UsageFault_Handler(void)
{
 8000f00:	b480      	push	{r7}
 8000f02:	af00      	add	r7, sp, #0
  /* USER CODE BEGIN UsageFault_IRQn 0 */

  /* USER CODE END UsageFault_IRQn 0 */
  while (1)
 8000f04:	bf00      	nop
 8000f06:	e7fd      	b.n	8000f04 <UsageFault_Handler+0x4>

08000f08 <SVC_Handler>:

/**
  * @brief This function handles System service call via SWI instruction.
  */
void SVC_Handler(void)
{
 8000f08:	b480      	push	{r7}
 8000f0a:	af00      	add	r7, sp, #0

  /* USER CODE END SVCall_IRQn 0 */
  /* USER CODE BEGIN SVCall_IRQn 1 */

  /* USER CODE END SVCall_IRQn 1 */
}
 8000f0c:	bf00      	nop
 8000f0e:	46bd      	mov	sp, r7
 8000f10:	f85d 7b04 	ldr.w	r7, [sp], #4
 8000f14:	4770      	bx	lr

08000f16 <DebugMon_Handler>:

/**
  * @brief This function handles Debug monitor.
  */
void DebugMon_Handler(void)
{
 8000f16:	b480      	push	{r7}
 8000f18:	af00      	add	r7, sp, #0

  /* USER CODE END DebugMonitor_IRQn 0 */
  /* USER CODE BEGIN DebugMonitor_IRQn 1 */

  /* USER CODE END DebugMonitor_IRQn 1 */
}
 8000f1a:	bf00      	nop
 8000f1c:	46bd      	mov	sp, r7
 8000f1e:	f85d 7b04 	ldr.w	r7, [sp], #4
 8000f22:	4770      	bx	lr

08000f24 <PendSV_Handler>:

/**
  * @brief This function handles Pendable request for system service.
  */
void PendSV_Handler(void)
{
 8000f24:	b480      	push	{r7}
 8000f26:	af00      	add	r7, sp, #0

  /* USER CODE END PendSV_IRQn 0 */
  /* USER CODE BEGIN PendSV_IRQn 1 */

  /* USER CODE END PendSV_IRQn 1 */
}
 8000f28:	bf00      	nop
 8000f2a:	46bd      	mov	sp, r7
 8000f2c:	f85d 7b04 	ldr.w	r7, [sp], #4
 8000f30:	4770      	bx	lr
	...

08000f34 <SysTick_Handler>:

/**
  * @brief This function handles System tick timer.
  */
void SysTick_Handler(void)
{
 8000f34:	b480      	push	{r7}
 8000f36:	b083      	sub	sp, #12
 8000f38:	af00      	add	r7, sp, #0
  /* USER CODE BEGIN SysTick_IRQn 0 */
	static int x=0x12c0; // What is this number ?
	for(int i=0;i<x;i++);
 8000f3a:	2300      	movs	r3, #0
 8000f3c:	607b      	str	r3, [r7, #4]
 8000f3e:	e002      	b.n	8000f46 <SysTick_Handler+0x12>
 8000f40:	687b      	ldr	r3, [r7, #4]
 8000f42:	3301      	adds	r3, #1
 8000f44:	607b      	str	r3, [r7, #4]
 8000f46:	4b0b      	ldr	r3, [pc, #44]	@ (8000f74 <SysTick_Handler+0x40>)
 8000f48:	681b      	ldr	r3, [r3, #0]
 8000f4a:	687a      	ldr	r2, [r7, #4]
 8000f4c:	429a      	cmp	r2, r3
 8000f4e:	dbf7      	blt.n	8000f40 <SysTick_Handler+0xc>
	x  =  (x  >>  2)  |  (((x  &  1)^(x  &  2))  <<  4);
 8000f50:	4b08      	ldr	r3, [pc, #32]	@ (8000f74 <SysTick_Handler+0x40>)
 8000f52:	681b      	ldr	r3, [r3, #0]
 8000f54:	109a      	asrs	r2, r3, #2
 8000f56:	4b07      	ldr	r3, [pc, #28]	@ (8000f74 <SysTick_Handler+0x40>)
 8000f58:	681b      	ldr	r3, [r3, #0]
 8000f5a:	011b      	lsls	r3, r3, #4
 8000f5c:	f003 0330 	and.w	r3, r3, #48	@ 0x30
 8000f60:	4313      	orrs	r3, r2
 8000f62:	4a04      	ldr	r2, [pc, #16]	@ (8000f74 <SysTick_Handler+0x40>)
 8000f64:	6013      	str	r3, [r2, #0]
  /* USER CODE END SysTick_IRQn 0 */

  /* USER CODE BEGIN SysTick_IRQn 1 */

  /* USER CODE END SysTick_IRQn 1 */
}
 8000f66:	bf00      	nop
 8000f68:	370c      	adds	r7, #12
 8000f6a:	46bd      	mov	sp, r7
 8000f6c:	f85d 7b04 	ldr.w	r7, [sp], #4
 8000f70:	4770      	bx	lr
 8000f72:	bf00      	nop
 8000f74:	20000000 	.word	0x20000000

08000f78 <SystemInit>:
  *         configuration.
  * @param  None
  * @retval None
  */
void SystemInit(void)
{
 8000f78:	b480      	push	{r7}
 8000f7a:	af00      	add	r7, sp, #0
  /* FPU settings ------------------------------------------------------------*/
  #if (__FPU_PRESENT == 1) && (__FPU_USED == 1)
    SCB->CPACR |= ((3UL << 10*2)|(3UL << 11*2));  /* set CP10 and CP11 Full Access */
 8000f7c:	4b06      	ldr	r3, [pc, #24]	@ (8000f98 <SystemInit+0x20>)
 8000f7e:	f8d3 3088 	ldr.w	r3, [r3, #136]	@ 0x88
 8000f82:	4a05      	ldr	r2, [pc, #20]	@ (8000f98 <SystemInit+0x20>)
 8000f84:	f443 0370 	orr.w	r3, r3, #15728640	@ 0xf00000
 8000f88:	f8c2 3088 	str.w	r3, [r2, #136]	@ 0x88

  /* Configure the Vector Table location -------------------------------------*/
#if defined(USER_VECT_TAB_ADDRESS)
  SCB->VTOR = VECT_TAB_BASE_ADDRESS | VECT_TAB_OFFSET; /* Vector Table Relocation in Internal SRAM */
#endif /* USER_VECT_TAB_ADDRESS */
}
 8000f8c:	bf00      	nop
 8000f8e:	46bd      	mov	sp, r7
 8000f90:	f85d 7b04 	ldr.w	r7, [sp], #4
 8000f94:	4770      	bx	lr
 8000f96:	bf00      	nop
 8000f98:	e000ed00 	.word	0xe000ed00

08000f9c <Reset_Handler>:

    .section  .text.Reset_Handler
  .weak  Reset_Handler
  .type  Reset_Handler, %function
Reset_Handler:  
  ldr   sp, =_estack    		 /* set stack pointer */
 8000f9c:	f8df d034 	ldr.w	sp, [pc, #52]	@ 8000fd4 <LoopFillZerobss+0xe>

/* Call the clock system initialization function.*/
  bl  SystemInit  
 8000fa0:	f7ff ffea 	bl	8000f78 <SystemInit>

/* Copy the data segment initializers from flash to SRAM */  
  ldr r0, =_sdata
 8000fa4:	480c      	ldr	r0, [pc, #48]	@ (8000fd8 <LoopFillZerobss+0x12>)
  ldr r1, =_edata
 8000fa6:	490d      	ldr	r1, [pc, #52]	@ (8000fdc <LoopFillZerobss+0x16>)
  ldr r2, =_sidata
 8000fa8:	4a0d      	ldr	r2, [pc, #52]	@ (8000fe0 <LoopFillZerobss+0x1a>)
  movs r3, #0
 8000faa:	2300      	movs	r3, #0
  b LoopCopyDataInit
 8000fac:	e002      	b.n	8000fb4 <LoopCopyDataInit>

08000fae <CopyDataInit>:

CopyDataInit:
  ldr r4, [r2, r3]
 8000fae:	58d4      	ldr	r4, [r2, r3]
  str r4, [r0, r3]
 8000fb0:	50c4      	str	r4, [r0, r3]
  adds r3, r3, #4
 8000fb2:	3304      	adds	r3, #4

08000fb4 <LoopCopyDataInit>:

LoopCopyDataInit:
  adds r4, r0, r3
 8000fb4:	18c4      	adds	r4, r0, r3
  cmp r4, r1
 8000fb6:	428c      	cmp	r4, r1
  bcc CopyDataInit
 8000fb8:	d3f9      	bcc.n	8000fae <CopyDataInit>
  
/* Zero fill the bss segment. */
  ldr r2, =_sbss
 8000fba:	4a0a      	ldr	r2, [pc, #40]	@ (8000fe4 <LoopFillZerobss+0x1e>)
  ldr r4, =_ebss
 8000fbc:	4c0a      	ldr	r4, [pc, #40]	@ (8000fe8 <LoopFillZerobss+0x22>)
  movs r3, #0
 8000fbe:	2300      	movs	r3, #0
  b LoopFillZerobss
 8000fc0:	e001      	b.n	8000fc6 <LoopFillZerobss>

08000fc2 <FillZerobss>:

FillZerobss:
  str  r3, [r2]
 8000fc2:	6013      	str	r3, [r2, #0]
  adds r2, r2, #4
 8000fc4:	3204      	adds	r2, #4

08000fc6 <LoopFillZerobss>:

LoopFillZerobss:
  cmp r2, r4
 8000fc6:	42a2      	cmp	r2, r4
  bcc FillZerobss
 8000fc8:	d3fb      	bcc.n	8000fc2 <FillZerobss>
 
/* Call static constructors */
    bl __libc_init_array
 8000fca:	f001 f9f5 	bl	80023b8 <__libc_init_array>
/* Call the application's entry point.*/
  bl  main
 8000fce:	f7ff fe03 	bl	8000bd8 <main>
  bx  lr    
 8000fd2:	4770      	bx	lr
  ldr   sp, =_estack    		 /* set stack pointer */
 8000fd4:	20018000 	.word	0x20018000
  ldr r0, =_sdata
 8000fd8:	20000000 	.word	0x20000000
  ldr r1, =_edata
 8000fdc:	20000008 	.word	0x20000008
  ldr r2, =_sidata
 8000fe0:	08002450 	.word	0x08002450
  ldr r2, =_sbss
 8000fe4:	20000008 	.word	0x20000008
  ldr r4, =_ebss
 8000fe8:	20000024 	.word	0x20000024

08000fec <ADC_IRQHandler>:
 * @retval None       
*/
    .section  .text.Default_Handler,"ax",%progbits
Default_Handler:
Infinite_Loop:
  b  Infinite_Loop
 8000fec:	e7fe      	b.n	8000fec <ADC_IRQHandler>
	...

08000ff0 <LL_EXTI_EnableIT_0_31>:
  * @note   (*): Available in some devices
  * @note   Please check each device line mapping for EXTI Line availability
  * @retval None
  */
__STATIC_INLINE void LL_EXTI_EnableIT_0_31(uint32_t ExtiLine)
{
 8000ff0:	b480      	push	{r7}
 8000ff2:	b083      	sub	sp, #12
 8000ff4:	af00      	add	r7, sp, #0
 8000ff6:	6078      	str	r0, [r7, #4]
  SET_BIT(EXTI->IMR, ExtiLine);
 8000ff8:	4b05      	ldr	r3, [pc, #20]	@ (8001010 <LL_EXTI_EnableIT_0_31+0x20>)
 8000ffa:	681a      	ldr	r2, [r3, #0]
 8000ffc:	4904      	ldr	r1, [pc, #16]	@ (8001010 <LL_EXTI_EnableIT_0_31+0x20>)
 8000ffe:	687b      	ldr	r3, [r7, #4]
 8001000:	4313      	orrs	r3, r2
 8001002:	600b      	str	r3, [r1, #0]
}
 8001004:	bf00      	nop
 8001006:	370c      	adds	r7, #12
 8001008:	46bd      	mov	sp, r7
 800100a:	f85d 7b04 	ldr.w	r7, [sp], #4
 800100e:	4770      	bx	lr
 8001010:	40013c00 	.word	0x40013c00

08001014 <LL_EXTI_DisableIT_0_31>:
  * @note   (*): Available in some devices
  * @note   Please check each device line mapping for EXTI Line availability
  * @retval None
  */
__STATIC_INLINE void LL_EXTI_DisableIT_0_31(uint32_t ExtiLine)
{
 8001014:	b480      	push	{r7}
 8001016:	b083      	sub	sp, #12
 8001018:	af00      	add	r7, sp, #0
 800101a:	6078      	str	r0, [r7, #4]
  CLEAR_BIT(EXTI->IMR, ExtiLine);
 800101c:	4b06      	ldr	r3, [pc, #24]	@ (8001038 <LL_EXTI_DisableIT_0_31+0x24>)
 800101e:	681a      	ldr	r2, [r3, #0]
 8001020:	687b      	ldr	r3, [r7, #4]
 8001022:	43db      	mvns	r3, r3
 8001024:	4904      	ldr	r1, [pc, #16]	@ (8001038 <LL_EXTI_DisableIT_0_31+0x24>)
 8001026:	4013      	ands	r3, r2
 8001028:	600b      	str	r3, [r1, #0]
}
 800102a:	bf00      	nop
 800102c:	370c      	adds	r7, #12
 800102e:	46bd      	mov	sp, r7
 8001030:	f85d 7b04 	ldr.w	r7, [sp], #4
 8001034:	4770      	bx	lr
 8001036:	bf00      	nop
 8001038:	40013c00 	.word	0x40013c00

0800103c <LL_EXTI_EnableEvent_0_31>:
  * @note   (*): Available in some devices
  * @note   Please check each device line mapping for EXTI Line availability
  * @retval None
  */
__STATIC_INLINE void LL_EXTI_EnableEvent_0_31(uint32_t ExtiLine)
{
 800103c:	b480      	push	{r7}
 800103e:	b083      	sub	sp, #12
 8001040:	af00      	add	r7, sp, #0
 8001042:	6078      	str	r0, [r7, #4]
  SET_BIT(EXTI->EMR, ExtiLine);
 8001044:	4b05      	ldr	r3, [pc, #20]	@ (800105c <LL_EXTI_EnableEvent_0_31+0x20>)
 8001046:	685a      	ldr	r2, [r3, #4]
 8001048:	4904      	ldr	r1, [pc, #16]	@ (800105c <LL_EXTI_EnableEvent_0_31+0x20>)
 800104a:	687b      	ldr	r3, [r7, #4]
 800104c:	4313      	orrs	r3, r2
 800104e:	604b      	str	r3, [r1, #4]

}
 8001050:	bf00      	nop
 8001052:	370c      	adds	r7, #12
 8001054:	46bd      	mov	sp, r7
 8001056:	f85d 7b04 	ldr.w	r7, [sp], #4
 800105a:	4770      	bx	lr
 800105c:	40013c00 	.word	0x40013c00

08001060 <LL_EXTI_DisableEvent_0_31>:
  * @note   (*): Available in some devices
  * @note   Please check each device line mapping for EXTI Line availability
  * @retval None
  */
__STATIC_INLINE void LL_EXTI_DisableEvent_0_31(uint32_t ExtiLine)
{
 8001060:	b480      	push	{r7}
 8001062:	b083      	sub	sp, #12
 8001064:	af00      	add	r7, sp, #0
 8001066:	6078      	str	r0, [r7, #4]
  CLEAR_BIT(EXTI->EMR, ExtiLine);
 8001068:	4b06      	ldr	r3, [pc, #24]	@ (8001084 <LL_EXTI_DisableEvent_0_31+0x24>)
 800106a:	685a      	ldr	r2, [r3, #4]
 800106c:	687b      	ldr	r3, [r7, #4]
 800106e:	43db      	mvns	r3, r3
 8001070:	4904      	ldr	r1, [pc, #16]	@ (8001084 <LL_EXTI_DisableEvent_0_31+0x24>)
 8001072:	4013      	ands	r3, r2
 8001074:	604b      	str	r3, [r1, #4]
}
 8001076:	bf00      	nop
 8001078:	370c      	adds	r7, #12
 800107a:	46bd      	mov	sp, r7
 800107c:	f85d 7b04 	ldr.w	r7, [sp], #4
 8001080:	4770      	bx	lr
 8001082:	bf00      	nop
 8001084:	40013c00 	.word	0x40013c00

08001088 <LL_EXTI_EnableRisingTrig_0_31>:
  * @note   (*): Available in some devices
  * @note   Please check each device line mapping for EXTI Line availability
  * @retval None
  */
__STATIC_INLINE void LL_EXTI_EnableRisingTrig_0_31(uint32_t ExtiLine)
{
 8001088:	b480      	push	{r7}
 800108a:	b083      	sub	sp, #12
 800108c:	af00      	add	r7, sp, #0
 800108e:	6078      	str	r0, [r7, #4]
  SET_BIT(EXTI->RTSR, ExtiLine);
 8001090:	4b05      	ldr	r3, [pc, #20]	@ (80010a8 <LL_EXTI_EnableRisingTrig_0_31+0x20>)
 8001092:	689a      	ldr	r2, [r3, #8]
 8001094:	4904      	ldr	r1, [pc, #16]	@ (80010a8 <LL_EXTI_EnableRisingTrig_0_31+0x20>)
 8001096:	687b      	ldr	r3, [r7, #4]
 8001098:	4313      	orrs	r3, r2
 800109a:	608b      	str	r3, [r1, #8]

}
 800109c:	bf00      	nop
 800109e:	370c      	adds	r7, #12
 80010a0:	46bd      	mov	sp, r7
 80010a2:	f85d 7b04 	ldr.w	r7, [sp], #4
 80010a6:	4770      	bx	lr
 80010a8:	40013c00 	.word	0x40013c00

080010ac <LL_EXTI_DisableRisingTrig_0_31>:
  * @note   (*): Available in some devices
  * @note   Please check each device line mapping for EXTI Line availability
  * @retval None
  */
__STATIC_INLINE void LL_EXTI_DisableRisingTrig_0_31(uint32_t ExtiLine)
{
 80010ac:	b480      	push	{r7}
 80010ae:	b083      	sub	sp, #12
 80010b0:	af00      	add	r7, sp, #0
 80010b2:	6078      	str	r0, [r7, #4]
  CLEAR_BIT(EXTI->RTSR, ExtiLine);
 80010b4:	4b06      	ldr	r3, [pc, #24]	@ (80010d0 <LL_EXTI_DisableRisingTrig_0_31+0x24>)
 80010b6:	689a      	ldr	r2, [r3, #8]
 80010b8:	687b      	ldr	r3, [r7, #4]
 80010ba:	43db      	mvns	r3, r3
 80010bc:	4904      	ldr	r1, [pc, #16]	@ (80010d0 <LL_EXTI_DisableRisingTrig_0_31+0x24>)
 80010be:	4013      	ands	r3, r2
 80010c0:	608b      	str	r3, [r1, #8]

}
 80010c2:	bf00      	nop
 80010c4:	370c      	adds	r7, #12
 80010c6:	46bd      	mov	sp, r7
 80010c8:	f85d 7b04 	ldr.w	r7, [sp], #4
 80010cc:	4770      	bx	lr
 80010ce:	bf00      	nop
 80010d0:	40013c00 	.word	0x40013c00

080010d4 <LL_EXTI_EnableFallingTrig_0_31>:
  * @note   (*): Available in some devices
  * @note   Please check each device line mapping for EXTI Line availability
  * @retval None
  */
__STATIC_INLINE void LL_EXTI_EnableFallingTrig_0_31(uint32_t ExtiLine)
{
 80010d4:	b480      	push	{r7}
 80010d6:	b083      	sub	sp, #12
 80010d8:	af00      	add	r7, sp, #0
 80010da:	6078      	str	r0, [r7, #4]
  SET_BIT(EXTI->FTSR, ExtiLine);
 80010dc:	4b05      	ldr	r3, [pc, #20]	@ (80010f4 <LL_EXTI_EnableFallingTrig_0_31+0x20>)
 80010de:	68da      	ldr	r2, [r3, #12]
 80010e0:	4904      	ldr	r1, [pc, #16]	@ (80010f4 <LL_EXTI_EnableFallingTrig_0_31+0x20>)
 80010e2:	687b      	ldr	r3, [r7, #4]
 80010e4:	4313      	orrs	r3, r2
 80010e6:	60cb      	str	r3, [r1, #12]
}
 80010e8:	bf00      	nop
 80010ea:	370c      	adds	r7, #12
 80010ec:	46bd      	mov	sp, r7
 80010ee:	f85d 7b04 	ldr.w	r7, [sp], #4
 80010f2:	4770      	bx	lr
 80010f4:	40013c00 	.word	0x40013c00

080010f8 <LL_EXTI_DisableFallingTrig_0_31>:
  * @note   (*): Available in some devices
  * @note   Please check each device line mapping for EXTI Line availability
  * @retval None
  */
__STATIC_INLINE void LL_EXTI_DisableFallingTrig_0_31(uint32_t ExtiLine)
{
 80010f8:	b480      	push	{r7}
 80010fa:	b083      	sub	sp, #12
 80010fc:	af00      	add	r7, sp, #0
 80010fe:	6078      	str	r0, [r7, #4]
  CLEAR_BIT(EXTI->FTSR, ExtiLine);
 8001100:	4b06      	ldr	r3, [pc, #24]	@ (800111c <LL_EXTI_DisableFallingTrig_0_31+0x24>)
 8001102:	68da      	ldr	r2, [r3, #12]
 8001104:	687b      	ldr	r3, [r7, #4]
 8001106:	43db      	mvns	r3, r3
 8001108:	4904      	ldr	r1, [pc, #16]	@ (800111c <LL_EXTI_DisableFallingTrig_0_31+0x24>)
 800110a:	4013      	ands	r3, r2
 800110c:	60cb      	str	r3, [r1, #12]
}
 800110e:	bf00      	nop
 8001110:	370c      	adds	r7, #12
 8001112:	46bd      	mov	sp, r7
 8001114:	f85d 7b04 	ldr.w	r7, [sp], #4
 8001118:	4770      	bx	lr
 800111a:	bf00      	nop
 800111c:	40013c00 	.word	0x40013c00

08001120 <LL_EXTI_Init>:
  * @retval An ErrorStatus enumeration value:
  *          - SUCCESS: EXTI registers are initialized
  *          - ERROR: not applicable
  */
uint32_t LL_EXTI_Init(LL_EXTI_InitTypeDef *EXTI_InitStruct)
{
 8001120:	b580      	push	{r7, lr}
 8001122:	b084      	sub	sp, #16
 8001124:	af00      	add	r7, sp, #0
 8001126:	6078      	str	r0, [r7, #4]
  ErrorStatus status = SUCCESS;
 8001128:	2300      	movs	r3, #0
 800112a:	73fb      	strb	r3, [r7, #15]
  assert_param(IS_LL_EXTI_LINE_0_31(EXTI_InitStruct->Line_0_31));
  assert_param(IS_FUNCTIONAL_STATE(EXTI_InitStruct->LineCommand));
  assert_param(IS_LL_EXTI_MODE(EXTI_InitStruct->Mode));

  /* ENABLE LineCommand */
  if (EXTI_InitStruct->LineCommand != DISABLE)
 800112c:	687b      	ldr	r3, [r7, #4]
 800112e:	791b      	ldrb	r3, [r3, #4]
 8001130:	2b00      	cmp	r3, #0
 8001132:	d065      	beq.n	8001200 <LL_EXTI_Init+0xe0>
  {
    assert_param(IS_LL_EXTI_TRIGGER(EXTI_InitStruct->Trigger));

    /* Configure EXTI Lines in range from 0 to 31 */
    if (EXTI_InitStruct->Line_0_31 != LL_EXTI_LINE_NONE)
 8001134:	687b      	ldr	r3, [r7, #4]
 8001136:	681b      	ldr	r3, [r3, #0]
 8001138:	2b00      	cmp	r3, #0
 800113a:	d06b      	beq.n	8001214 <LL_EXTI_Init+0xf4>
    {
      switch (EXTI_InitStruct->Mode)
 800113c:	687b      	ldr	r3, [r7, #4]
 800113e:	795b      	ldrb	r3, [r3, #5]
 8001140:	2b02      	cmp	r3, #2
 8001142:	d01c      	beq.n	800117e <LL_EXTI_Init+0x5e>
 8001144:	2b02      	cmp	r3, #2
 8001146:	dc25      	bgt.n	8001194 <LL_EXTI_Init+0x74>
 8001148:	2b00      	cmp	r3, #0
 800114a:	d002      	beq.n	8001152 <LL_EXTI_Init+0x32>
 800114c:	2b01      	cmp	r3, #1
 800114e:	d00b      	beq.n	8001168 <LL_EXTI_Init+0x48>
 8001150:	e020      	b.n	8001194 <LL_EXTI_Init+0x74>
      {
        case LL_EXTI_MODE_IT:
          /* First Disable Event on provided Lines */
          LL_EXTI_DisableEvent_0_31(EXTI_InitStruct->Line_0_31);
 8001152:	687b      	ldr	r3, [r7, #4]
 8001154:	681b      	ldr	r3, [r3, #0]
 8001156:	4618      	mov	r0, r3
 8001158:	f7ff ff82 	bl	8001060 <LL_EXTI_DisableEvent_0_31>
          /* Then Enable IT on provided Lines */
          LL_EXTI_EnableIT_0_31(EXTI_InitStruct->Line_0_31);
 800115c:	687b      	ldr	r3, [r7, #4]
 800115e:	681b      	ldr	r3, [r3, #0]
 8001160:	4618      	mov	r0, r3
 8001162:	f7ff ff45 	bl	8000ff0 <LL_EXTI_EnableIT_0_31>
          break;
 8001166:	e018      	b.n	800119a <LL_EXTI_Init+0x7a>
        case LL_EXTI_MODE_EVENT:
          /* First Disable IT on provided Lines */
          LL_EXTI_DisableIT_0_31(EXTI_InitStruct->Line_0_31);
 8001168:	687b      	ldr	r3, [r7, #4]
 800116a:	681b      	ldr	r3, [r3, #0]
 800116c:	4618      	mov	r0, r3
 800116e:	f7ff ff51 	bl	8001014 <LL_EXTI_DisableIT_0_31>
          /* Then Enable Event on provided Lines */
          LL_EXTI_EnableEvent_0_31(EXTI_InitStruct->Line_0_31);
 8001172:	687b      	ldr	r3, [r7, #4]
 8001174:	681b      	ldr	r3, [r3, #0]
 8001176:	4618      	mov	r0, r3
 8001178:	f7ff ff60 	bl	800103c <LL_EXTI_EnableEvent_0_31>
          break;
 800117c:	e00d      	b.n	800119a <LL_EXTI_Init+0x7a>
        case LL_EXTI_MODE_IT_EVENT:
          /* Directly Enable IT & Event on provided Lines */
          LL_EXTI_EnableIT_0_31(EXTI_InitStruct->Line_0_31);
 800117e:	687b      	ldr	r3, [r7, #4]
 8001180:	681b      	ldr	r3, [r3, #0]
 8001182:	4618      	mov	r0, r3
 8001184:	f7ff ff34 	bl	8000ff0 <LL_EXTI_EnableIT_0_31>
          LL_EXTI_EnableEvent_0_31(EXTI_InitStruct->Line_0_31);
 8001188:	687b      	ldr	r3, [r7, #4]
 800118a:	681b      	ldr	r3, [r3, #0]
 800118c:	4618      	mov	r0, r3
 800118e:	f7ff ff55 	bl	800103c <LL_EXTI_EnableEvent_0_31>
          break;
 8001192:	e002      	b.n	800119a <LL_EXTI_Init+0x7a>
        default:
          status = ERROR;
 8001194:	2301      	movs	r3, #1
 8001196:	73fb      	strb	r3, [r7, #15]
          break;
 8001198:	bf00      	nop
      }
      if (EXTI_InitStruct->Trigger != LL_EXTI_TRIGGER_NONE)
 800119a:	687b      	ldr	r3, [r7, #4]
 800119c:	799b      	ldrb	r3, [r3, #6]
 800119e:	2b00      	cmp	r3, #0
 80011a0:	d038      	beq.n	8001214 <LL_EXTI_Init+0xf4>
      {
        switch (EXTI_InitStruct->Trigger)
 80011a2:	687b      	ldr	r3, [r7, #4]
 80011a4:	799b      	ldrb	r3, [r3, #6]
 80011a6:	2b03      	cmp	r3, #3
 80011a8:	d01c      	beq.n	80011e4 <LL_EXTI_Init+0xc4>
 80011aa:	2b03      	cmp	r3, #3
 80011ac:	dc25      	bgt.n	80011fa <LL_EXTI_Init+0xda>
 80011ae:	2b01      	cmp	r3, #1
 80011b0:	d002      	beq.n	80011b8 <LL_EXTI_Init+0x98>
 80011b2:	2b02      	cmp	r3, #2
 80011b4:	d00b      	beq.n	80011ce <LL_EXTI_Init+0xae>
 80011b6:	e020      	b.n	80011fa <LL_EXTI_Init+0xda>
        {
          case LL_EXTI_TRIGGER_RISING:
            /* First Disable Falling Trigger on provided Lines */
            LL_EXTI_DisableFallingTrig_0_31(EXTI_InitStruct->Line_0_31);
 80011b8:	687b      	ldr	r3, [r7, #4]
 80011ba:	681b      	ldr	r3, [r3, #0]
 80011bc:	4618      	mov	r0, r3
 80011be:	f7ff ff9b 	bl	80010f8 <LL_EXTI_DisableFallingTrig_0_31>
            /* Then Enable Rising Trigger on provided Lines */
            LL_EXTI_EnableRisingTrig_0_31(EXTI_InitStruct->Line_0_31);
 80011c2:	687b      	ldr	r3, [r7, #4]
 80011c4:	681b      	ldr	r3, [r3, #0]
 80011c6:	4618      	mov	r0, r3
 80011c8:	f7ff ff5e 	bl	8001088 <LL_EXTI_EnableRisingTrig_0_31>
            break;
 80011cc:	e022      	b.n	8001214 <LL_EXTI_Init+0xf4>
          case LL_EXTI_TRIGGER_FALLING:
            /* First Disable Rising Trigger on provided Lines */
            LL_EXTI_DisableRisingTrig_0_31(EXTI_InitStruct->Line_0_31);
 80011ce:	687b      	ldr	r3, [r7, #4]
 80011d0:	681b      	ldr	r3, [r3, #0]
 80011d2:	4618      	mov	r0, r3
 80011d4:	f7ff ff6a 	bl	80010ac <LL_EXTI_DisableRisingTrig_0_31>
            /* Then Enable Falling Trigger on provided Lines */
            LL_EXTI_EnableFallingTrig_0_31(EXTI_InitStruct->Line_0_31);
 80011d8:	687b      	ldr	r3, [r7, #4]
 80011da:	681b      	ldr	r3, [r3, #0]
 80011dc:	4618      	mov	r0, r3
 80011de:	f7ff ff79 	bl	80010d4 <LL_EXTI_EnableFallingTrig_0_31>
            break;
 80011e2:	e017      	b.n	8001214 <LL_EXTI_Init+0xf4>
          case LL_EXTI_TRIGGER_RISING_FALLING:
            LL_EXTI_EnableRisingTrig_0_31(EXTI_InitStruct->Line_0_31);
 80011e4:	687b      	ldr	r3, [r7, #4]
 80011e6:	681b      	ldr	r3, [r3, #0]
 80011e8:	4618      	mov	r0, r3
 80011ea:	f7ff ff4d 	bl	8001088 <LL_EXTI_EnableRisingTrig_0_31>
            LL_EXTI_EnableFallingTrig_0_31(EXTI_InitStruct->Line_0_31);
 80011ee:	687b      	ldr	r3, [r7, #4]
 80011f0:	681b      	ldr	r3, [r3, #0]
 80011f2:	4618      	mov	r0, r3
 80011f4:	f7ff ff6e 	bl	80010d4 <LL_EXTI_EnableFallingTrig_0_31>
            break;
 80011f8:	e00c      	b.n	8001214 <LL_EXTI_Init+0xf4>
          default:
            status = ERROR;
 80011fa:	2301      	movs	r3, #1
 80011fc:	73fb      	strb	r3, [r7, #15]
            break;
 80011fe:	e009      	b.n	8001214 <LL_EXTI_Init+0xf4>
  }
  /* DISABLE LineCommand */
  else
  {
    /* De-configure EXTI Lines in range from 0 to 31 */
    LL_EXTI_DisableIT_0_31(EXTI_InitStruct->Line_0_31);
 8001200:	687b      	ldr	r3, [r7, #4]
 8001202:	681b      	ldr	r3, [r3, #0]
 8001204:	4618      	mov	r0, r3
 8001206:	f7ff ff05 	bl	8001014 <LL_EXTI_DisableIT_0_31>
    LL_EXTI_DisableEvent_0_31(EXTI_InitStruct->Line_0_31);
 800120a:	687b      	ldr	r3, [r7, #4]
 800120c:	681b      	ldr	r3, [r3, #0]
 800120e:	4618      	mov	r0, r3
 8001210:	f7ff ff26 	bl	8001060 <LL_EXTI_DisableEvent_0_31>
  }
  return status;
 8001214:	7bfb      	ldrb	r3, [r7, #15]
}
 8001216:	4618      	mov	r0, r3
 8001218:	3710      	adds	r7, #16
 800121a:	46bd      	mov	sp, r7
 800121c:	bd80      	pop	{r7, pc}

0800121e <LL_GPIO_SetPinMode>:
{
 800121e:	b480      	push	{r7}
 8001220:	b08b      	sub	sp, #44	@ 0x2c
 8001222:	af00      	add	r7, sp, #0
 8001224:	60f8      	str	r0, [r7, #12]
 8001226:	60b9      	str	r1, [r7, #8]
 8001228:	607a      	str	r2, [r7, #4]
  MODIFY_REG(GPIOx->MODER, (GPIO_MODER_MODER0 << (POSITION_VAL(Pin) * 2U)), (Mode << (POSITION_VAL(Pin) * 2U)));
 800122a:	68fb      	ldr	r3, [r7, #12]
 800122c:	681a      	ldr	r2, [r3, #0]
 800122e:	68bb      	ldr	r3, [r7, #8]
 8001230:	617b      	str	r3, [r7, #20]
   __ASM ("rbit %0, %1" : "=r" (result) : "r" (value) );
 8001232:	697b      	ldr	r3, [r7, #20]
 8001234:	fa93 f3a3 	rbit	r3, r3
 8001238:	613b      	str	r3, [r7, #16]
  return result;
 800123a:	693b      	ldr	r3, [r7, #16]
 800123c:	61bb      	str	r3, [r7, #24]
  if (value == 0U)
 800123e:	69bb      	ldr	r3, [r7, #24]
 8001240:	2b00      	cmp	r3, #0
 8001242:	d101      	bne.n	8001248 <LL_GPIO_SetPinMode+0x2a>
    return 32U;
 8001244:	2320      	movs	r3, #32
 8001246:	e003      	b.n	8001250 <LL_GPIO_SetPinMode+0x32>
  return __builtin_clz(value);
 8001248:	69bb      	ldr	r3, [r7, #24]
 800124a:	fab3 f383 	clz	r3, r3
 800124e:	b2db      	uxtb	r3, r3
 8001250:	005b      	lsls	r3, r3, #1
 8001252:	2103      	movs	r1, #3
 8001254:	fa01 f303 	lsl.w	r3, r1, r3
 8001258:	43db      	mvns	r3, r3
 800125a:	401a      	ands	r2, r3
 800125c:	68bb      	ldr	r3, [r7, #8]
 800125e:	623b      	str	r3, [r7, #32]
   __ASM ("rbit %0, %1" : "=r" (result) : "r" (value) );
 8001260:	6a3b      	ldr	r3, [r7, #32]
 8001262:	fa93 f3a3 	rbit	r3, r3
 8001266:	61fb      	str	r3, [r7, #28]
  return result;
 8001268:	69fb      	ldr	r3, [r7, #28]
 800126a:	627b      	str	r3, [r7, #36]	@ 0x24
  if (value == 0U)
 800126c:	6a7b      	ldr	r3, [r7, #36]	@ 0x24
 800126e:	2b00      	cmp	r3, #0
 8001270:	d101      	bne.n	8001276 <LL_GPIO_SetPinMode+0x58>
    return 32U;
 8001272:	2320      	movs	r3, #32
 8001274:	e003      	b.n	800127e <LL_GPIO_SetPinMode+0x60>
  return __builtin_clz(value);
 8001276:	6a7b      	ldr	r3, [r7, #36]	@ 0x24
 8001278:	fab3 f383 	clz	r3, r3
 800127c:	b2db      	uxtb	r3, r3
 800127e:	005b      	lsls	r3, r3, #1
 8001280:	6879      	ldr	r1, [r7, #4]
 8001282:	fa01 f303 	lsl.w	r3, r1, r3
 8001286:	431a      	orrs	r2, r3
 8001288:	68fb      	ldr	r3, [r7, #12]
 800128a:	601a      	str	r2, [r3, #0]
}
 800128c:	bf00      	nop
 800128e:	372c      	adds	r7, #44	@ 0x2c
 8001290:	46bd      	mov	sp, r7
 8001292:	f85d 7b04 	ldr.w	r7, [sp], #4
 8001296:	4770      	bx	lr

08001298 <LL_GPIO_SetPinOutputType>:
{
 8001298:	b480      	push	{r7}
 800129a:	b085      	sub	sp, #20
 800129c:	af00      	add	r7, sp, #0
 800129e:	60f8      	str	r0, [r7, #12]
 80012a0:	60b9      	str	r1, [r7, #8]
 80012a2:	607a      	str	r2, [r7, #4]
  MODIFY_REG(GPIOx->OTYPER, PinMask, (PinMask * OutputType));
 80012a4:	68fb      	ldr	r3, [r7, #12]
 80012a6:	685a      	ldr	r2, [r3, #4]
 80012a8:	68bb      	ldr	r3, [r7, #8]
 80012aa:	43db      	mvns	r3, r3
 80012ac:	401a      	ands	r2, r3
 80012ae:	68bb      	ldr	r3, [r7, #8]
 80012b0:	6879      	ldr	r1, [r7, #4]
 80012b2:	fb01 f303 	mul.w	r3, r1, r3
 80012b6:	431a      	orrs	r2, r3
 80012b8:	68fb      	ldr	r3, [r7, #12]
 80012ba:	605a      	str	r2, [r3, #4]
}
 80012bc:	bf00      	nop
 80012be:	3714      	adds	r7, #20
 80012c0:	46bd      	mov	sp, r7
 80012c2:	f85d 7b04 	ldr.w	r7, [sp], #4
 80012c6:	4770      	bx	lr

080012c8 <LL_GPIO_SetPinSpeed>:
{
 80012c8:	b480      	push	{r7}
 80012ca:	b08b      	sub	sp, #44	@ 0x2c
 80012cc:	af00      	add	r7, sp, #0
 80012ce:	60f8      	str	r0, [r7, #12]
 80012d0:	60b9      	str	r1, [r7, #8]
 80012d2:	607a      	str	r2, [r7, #4]
  MODIFY_REG(GPIOx->OSPEEDR, (GPIO_OSPEEDER_OSPEEDR0 << (POSITION_VAL(Pin) * 2U)),
 80012d4:	68fb      	ldr	r3, [r7, #12]
 80012d6:	689a      	ldr	r2, [r3, #8]
 80012d8:	68bb      	ldr	r3, [r7, #8]
 80012da:	617b      	str	r3, [r7, #20]
   __ASM ("rbit %0, %1" : "=r" (result) : "r" (value) );
 80012dc:	697b      	ldr	r3, [r7, #20]
 80012de:	fa93 f3a3 	rbit	r3, r3
 80012e2:	613b      	str	r3, [r7, #16]
  return result;
 80012e4:	693b      	ldr	r3, [r7, #16]
 80012e6:	61bb      	str	r3, [r7, #24]
  if (value == 0U)
 80012e8:	69bb      	ldr	r3, [r7, #24]
 80012ea:	2b00      	cmp	r3, #0
 80012ec:	d101      	bne.n	80012f2 <LL_GPIO_SetPinSpeed+0x2a>
    return 32U;
 80012ee:	2320      	movs	r3, #32
 80012f0:	e003      	b.n	80012fa <LL_GPIO_SetPinSpeed+0x32>
  return __builtin_clz(value);
 80012f2:	69bb      	ldr	r3, [r7, #24]
 80012f4:	fab3 f383 	clz	r3, r3
 80012f8:	b2db      	uxtb	r3, r3
 80012fa:	005b      	lsls	r3, r3, #1
 80012fc:	2103      	movs	r1, #3
 80012fe:	fa01 f303 	lsl.w	r3, r1, r3
 8001302:	43db      	mvns	r3, r3
 8001304:	401a      	ands	r2, r3
 8001306:	68bb      	ldr	r3, [r7, #8]
 8001308:	623b      	str	r3, [r7, #32]
   __ASM ("rbit %0, %1" : "=r" (result) : "r" (value) );
 800130a:	6a3b      	ldr	r3, [r7, #32]
 800130c:	fa93 f3a3 	rbit	r3, r3
 8001310:	61fb      	str	r3, [r7, #28]
  return result;
 8001312:	69fb      	ldr	r3, [r7, #28]
 8001314:	627b      	str	r3, [r7, #36]	@ 0x24
  if (value == 0U)
 8001316:	6a7b      	ldr	r3, [r7, #36]	@ 0x24
 8001318:	2b00      	cmp	r3, #0
 800131a:	d101      	bne.n	8001320 <LL_GPIO_SetPinSpeed+0x58>
    return 32U;
 800131c:	2320      	movs	r3, #32
 800131e:	e003      	b.n	8001328 <LL_GPIO_SetPinSpeed+0x60>
  return __builtin_clz(value);
 8001320:	6a7b      	ldr	r3, [r7, #36]	@ 0x24
 8001322:	fab3 f383 	clz	r3, r3
 8001326:	b2db      	uxtb	r3, r3
 8001328:	005b      	lsls	r3, r3, #1
 800132a:	6879      	ldr	r1, [r7, #4]
 800132c:	fa01 f303 	lsl.w	r3, r1, r3
 8001330:	431a      	orrs	r2, r3
 8001332:	68fb      	ldr	r3, [r7, #12]
 8001334:	609a      	str	r2, [r3, #8]
}
 8001336:	bf00      	nop
 8001338:	372c      	adds	r7, #44	@ 0x2c
 800133a:	46bd      	mov	sp, r7
 800133c:	f85d 7b04 	ldr.w	r7, [sp], #4
 8001340:	4770      	bx	lr

08001342 <LL_GPIO_SetPinPull>:
{
 8001342:	b480      	push	{r7}
 8001344:	b08b      	sub	sp, #44	@ 0x2c
 8001346:	af00      	add	r7, sp, #0
 8001348:	60f8      	str	r0, [r7, #12]
 800134a:	60b9      	str	r1, [r7, #8]
 800134c:	607a      	str	r2, [r7, #4]
  MODIFY_REG(GPIOx->PUPDR, (GPIO_PUPDR_PUPDR0 << (POSITION_VAL(Pin) * 2U)), (Pull << (POSITION_VAL(Pin) * 2U)));
 800134e:	68fb      	ldr	r3, [r7, #12]
 8001350:	68da      	ldr	r2, [r3, #12]
 8001352:	68bb      	ldr	r3, [r7, #8]
 8001354:	617b      	str	r3, [r7, #20]
   __ASM ("rbit %0, %1" : "=r" (result) : "r" (value) );
 8001356:	697b      	ldr	r3, [r7, #20]
 8001358:	fa93 f3a3 	rbit	r3, r3
 800135c:	613b      	str	r3, [r7, #16]
  return result;
 800135e:	693b      	ldr	r3, [r7, #16]
 8001360:	61bb      	str	r3, [r7, #24]
  if (value == 0U)
 8001362:	69bb      	ldr	r3, [r7, #24]
 8001364:	2b00      	cmp	r3, #0
 8001366:	d101      	bne.n	800136c <LL_GPIO_SetPinPull+0x2a>
    return 32U;
 8001368:	2320      	movs	r3, #32
 800136a:	e003      	b.n	8001374 <LL_GPIO_SetPinPull+0x32>
  return __builtin_clz(value);
 800136c:	69bb      	ldr	r3, [r7, #24]
 800136e:	fab3 f383 	clz	r3, r3
 8001372:	b2db      	uxtb	r3, r3
 8001374:	005b      	lsls	r3, r3, #1
 8001376:	2103      	movs	r1, #3
 8001378:	fa01 f303 	lsl.w	r3, r1, r3
 800137c:	43db      	mvns	r3, r3
 800137e:	401a      	ands	r2, r3
 8001380:	68bb      	ldr	r3, [r7, #8]
 8001382:	623b      	str	r3, [r7, #32]
   __ASM ("rbit %0, %1" : "=r" (result) : "r" (value) );
 8001384:	6a3b      	ldr	r3, [r7, #32]
 8001386:	fa93 f3a3 	rbit	r3, r3
 800138a:	61fb      	str	r3, [r7, #28]
  return result;
 800138c:	69fb      	ldr	r3, [r7, #28]
 800138e:	627b      	str	r3, [r7, #36]	@ 0x24
  if (value == 0U)
 8001390:	6a7b      	ldr	r3, [r7, #36]	@ 0x24
 8001392:	2b00      	cmp	r3, #0
 8001394:	d101      	bne.n	800139a <LL_GPIO_SetPinPull+0x58>
    return 32U;
 8001396:	2320      	movs	r3, #32
 8001398:	e003      	b.n	80013a2 <LL_GPIO_SetPinPull+0x60>
  return __builtin_clz(value);
 800139a:	6a7b      	ldr	r3, [r7, #36]	@ 0x24
 800139c:	fab3 f383 	clz	r3, r3
 80013a0:	b2db      	uxtb	r3, r3
 80013a2:	005b      	lsls	r3, r3, #1
 80013a4:	6879      	ldr	r1, [r7, #4]
 80013a6:	fa01 f303 	lsl.w	r3, r1, r3
 80013aa:	431a      	orrs	r2, r3
 80013ac:	68fb      	ldr	r3, [r7, #12]
 80013ae:	60da      	str	r2, [r3, #12]
}
 80013b0:	bf00      	nop
 80013b2:	372c      	adds	r7, #44	@ 0x2c
 80013b4:	46bd      	mov	sp, r7
 80013b6:	f85d 7b04 	ldr.w	r7, [sp], #4
 80013ba:	4770      	bx	lr

080013bc <LL_GPIO_SetAFPin_0_7>:
{
 80013bc:	b480      	push	{r7}
 80013be:	b08b      	sub	sp, #44	@ 0x2c
 80013c0:	af00      	add	r7, sp, #0
 80013c2:	60f8      	str	r0, [r7, #12]
 80013c4:	60b9      	str	r1, [r7, #8]
 80013c6:	607a      	str	r2, [r7, #4]
  MODIFY_REG(GPIOx->AFR[0], (GPIO_AFRL_AFSEL0 << (POSITION_VAL(Pin) * 4U)),
 80013c8:	68fb      	ldr	r3, [r7, #12]
 80013ca:	6a1a      	ldr	r2, [r3, #32]
 80013cc:	68bb      	ldr	r3, [r7, #8]
 80013ce:	617b      	str	r3, [r7, #20]
   __ASM ("rbit %0, %1" : "=r" (result) : "r" (value) );
 80013d0:	697b      	ldr	r3, [r7, #20]
 80013d2:	fa93 f3a3 	rbit	r3, r3
 80013d6:	613b      	str	r3, [r7, #16]
  return result;
 80013d8:	693b      	ldr	r3, [r7, #16]
 80013da:	61bb      	str	r3, [r7, #24]
  if (value == 0U)
 80013dc:	69bb      	ldr	r3, [r7, #24]
 80013de:	2b00      	cmp	r3, #0
 80013e0:	d101      	bne.n	80013e6 <LL_GPIO_SetAFPin_0_7+0x2a>
    return 32U;
 80013e2:	2320      	movs	r3, #32
 80013e4:	e003      	b.n	80013ee <LL_GPIO_SetAFPin_0_7+0x32>
  return __builtin_clz(value);
 80013e6:	69bb      	ldr	r3, [r7, #24]
 80013e8:	fab3 f383 	clz	r3, r3
 80013ec:	b2db      	uxtb	r3, r3
 80013ee:	009b      	lsls	r3, r3, #2
 80013f0:	210f      	movs	r1, #15
 80013f2:	fa01 f303 	lsl.w	r3, r1, r3
 80013f6:	43db      	mvns	r3, r3
 80013f8:	401a      	ands	r2, r3
 80013fa:	68bb      	ldr	r3, [r7, #8]
 80013fc:	623b      	str	r3, [r7, #32]
   __ASM ("rbit %0, %1" : "=r" (result) : "r" (value) );
 80013fe:	6a3b      	ldr	r3, [r7, #32]
 8001400:	fa93 f3a3 	rbit	r3, r3
 8001404:	61fb      	str	r3, [r7, #28]
  return result;
 8001406:	69fb      	ldr	r3, [r7, #28]
 8001408:	627b      	str	r3, [r7, #36]	@ 0x24
  if (value == 0U)
 800140a:	6a7b      	ldr	r3, [r7, #36]	@ 0x24
 800140c:	2b00      	cmp	r3, #0
 800140e:	d101      	bne.n	8001414 <LL_GPIO_SetAFPin_0_7+0x58>
    return 32U;
 8001410:	2320      	movs	r3, #32
 8001412:	e003      	b.n	800141c <LL_GPIO_SetAFPin_0_7+0x60>
  return __builtin_clz(value);
 8001414:	6a7b      	ldr	r3, [r7, #36]	@ 0x24
 8001416:	fab3 f383 	clz	r3, r3
 800141a:	b2db      	uxtb	r3, r3
 800141c:	009b      	lsls	r3, r3, #2
 800141e:	6879      	ldr	r1, [r7, #4]
 8001420:	fa01 f303 	lsl.w	r3, r1, r3
 8001424:	431a      	orrs	r2, r3
 8001426:	68fb      	ldr	r3, [r7, #12]
 8001428:	621a      	str	r2, [r3, #32]
}
 800142a:	bf00      	nop
 800142c:	372c      	adds	r7, #44	@ 0x2c
 800142e:	46bd      	mov	sp, r7
 8001430:	f85d 7b04 	ldr.w	r7, [sp], #4
 8001434:	4770      	bx	lr

08001436 <LL_GPIO_SetAFPin_8_15>:
{
 8001436:	b480      	push	{r7}
 8001438:	b08b      	sub	sp, #44	@ 0x2c
 800143a:	af00      	add	r7, sp, #0
 800143c:	60f8      	str	r0, [r7, #12]
 800143e:	60b9      	str	r1, [r7, #8]
 8001440:	607a      	str	r2, [r7, #4]
  MODIFY_REG(GPIOx->AFR[1], (GPIO_AFRH_AFSEL8 << (POSITION_VAL(Pin >> 8U) * 4U)),
 8001442:	68fb      	ldr	r3, [r7, #12]
 8001444:	6a5a      	ldr	r2, [r3, #36]	@ 0x24
 8001446:	68bb      	ldr	r3, [r7, #8]
 8001448:	0a1b      	lsrs	r3, r3, #8
 800144a:	617b      	str	r3, [r7, #20]
   __ASM ("rbit %0, %1" : "=r" (result) : "r" (value) );
 800144c:	697b      	ldr	r3, [r7, #20]
 800144e:	fa93 f3a3 	rbit	r3, r3
 8001452:	613b      	str	r3, [r7, #16]
  return result;
 8001454:	693b      	ldr	r3, [r7, #16]
 8001456:	61bb      	str	r3, [r7, #24]
  if (value == 0U)
 8001458:	69bb      	ldr	r3, [r7, #24]
 800145a:	2b00      	cmp	r3, #0
 800145c:	d101      	bne.n	8001462 <LL_GPIO_SetAFPin_8_15+0x2c>
    return 32U;
 800145e:	2320      	movs	r3, #32
 8001460:	e003      	b.n	800146a <LL_GPIO_SetAFPin_8_15+0x34>
  return __builtin_clz(value);
 8001462:	69bb      	ldr	r3, [r7, #24]
 8001464:	fab3 f383 	clz	r3, r3
 8001468:	b2db      	uxtb	r3, r3
 800146a:	009b      	lsls	r3, r3, #2
 800146c:	210f      	movs	r1, #15
 800146e:	fa01 f303 	lsl.w	r3, r1, r3
 8001472:	43db      	mvns	r3, r3
 8001474:	401a      	ands	r2, r3
 8001476:	68bb      	ldr	r3, [r7, #8]
 8001478:	0a1b      	lsrs	r3, r3, #8
 800147a:	623b      	str	r3, [r7, #32]
   __ASM ("rbit %0, %1" : "=r" (result) : "r" (value) );
 800147c:	6a3b      	ldr	r3, [r7, #32]
 800147e:	fa93 f3a3 	rbit	r3, r3
 8001482:	61fb      	str	r3, [r7, #28]
  return result;
 8001484:	69fb      	ldr	r3, [r7, #28]
 8001486:	627b      	str	r3, [r7, #36]	@ 0x24
  if (value == 0U)
 8001488:	6a7b      	ldr	r3, [r7, #36]	@ 0x24
 800148a:	2b00      	cmp	r3, #0
 800148c:	d101      	bne.n	8001492 <LL_GPIO_SetAFPin_8_15+0x5c>
    return 32U;
 800148e:	2320      	movs	r3, #32
 8001490:	e003      	b.n	800149a <LL_GPIO_SetAFPin_8_15+0x64>
  return __builtin_clz(value);
 8001492:	6a7b      	ldr	r3, [r7, #36]	@ 0x24
 8001494:	fab3 f383 	clz	r3, r3
 8001498:	b2db      	uxtb	r3, r3
 800149a:	009b      	lsls	r3, r3, #2
 800149c:	6879      	ldr	r1, [r7, #4]
 800149e:	fa01 f303 	lsl.w	r3, r1, r3
 80014a2:	431a      	orrs	r2, r3
 80014a4:	68fb      	ldr	r3, [r7, #12]
 80014a6:	625a      	str	r2, [r3, #36]	@ 0x24
}
 80014a8:	bf00      	nop
 80014aa:	372c      	adds	r7, #44	@ 0x2c
 80014ac:	46bd      	mov	sp, r7
 80014ae:	f85d 7b04 	ldr.w	r7, [sp], #4
 80014b2:	4770      	bx	lr

080014b4 <LL_GPIO_Init>:
  * @retval An ErrorStatus enumeration value:
  *          - SUCCESS: GPIO registers are initialized according to GPIO_InitStruct content
  *          - ERROR:   Not applicable
  */
ErrorStatus LL_GPIO_Init(GPIO_TypeDef *GPIOx, LL_GPIO_InitTypeDef *GPIO_InitStruct)
{
 80014b4:	b580      	push	{r7, lr}
 80014b6:	b08a      	sub	sp, #40	@ 0x28
 80014b8:	af00      	add	r7, sp, #0
 80014ba:	6078      	str	r0, [r7, #4]
 80014bc:	6039      	str	r1, [r7, #0]
  uint32_t pinpos     = 0x00000000U;
 80014be:	2300      	movs	r3, #0
 80014c0:	627b      	str	r3, [r7, #36]	@ 0x24
  uint32_t currentpin = 0x00000000U;
 80014c2:	2300      	movs	r3, #0
 80014c4:	623b      	str	r3, [r7, #32]
  assert_param(IS_LL_GPIO_MODE(GPIO_InitStruct->Mode));
  assert_param(IS_LL_GPIO_PULL(GPIO_InitStruct->Pull));

  /* ------------------------- Configure the port pins ---------------- */
  /* Initialize  pinpos on first pin set */
  pinpos = POSITION_VAL(GPIO_InitStruct->Pin);
 80014c6:	683b      	ldr	r3, [r7, #0]
 80014c8:	681b      	ldr	r3, [r3, #0]
 80014ca:	61bb      	str	r3, [r7, #24]
   __ASM ("rbit %0, %1" : "=r" (result) : "r" (value) );
 80014cc:	69bb      	ldr	r3, [r7, #24]
 80014ce:	fa93 f3a3 	rbit	r3, r3
 80014d2:	617b      	str	r3, [r7, #20]
  return result;
 80014d4:	697b      	ldr	r3, [r7, #20]
 80014d6:	61fb      	str	r3, [r7, #28]
  if (value == 0U)
 80014d8:	69fb      	ldr	r3, [r7, #28]
 80014da:	2b00      	cmp	r3, #0
 80014dc:	d101      	bne.n	80014e2 <LL_GPIO_Init+0x2e>
    return 32U;
 80014de:	2320      	movs	r3, #32
 80014e0:	e003      	b.n	80014ea <LL_GPIO_Init+0x36>
  return __builtin_clz(value);
 80014e2:	69fb      	ldr	r3, [r7, #28]
 80014e4:	fab3 f383 	clz	r3, r3
 80014e8:	b2db      	uxtb	r3, r3
 80014ea:	627b      	str	r3, [r7, #36]	@ 0x24
  
  /* Configure the port pins */
  while (((GPIO_InitStruct->Pin) >> pinpos) != 0x00000000U)
 80014ec:	e057      	b.n	800159e <LL_GPIO_Init+0xea>
  {
    /* Get current io position */
    currentpin = (GPIO_InitStruct->Pin) & (0x00000001U << pinpos);
 80014ee:	683b      	ldr	r3, [r7, #0]
 80014f0:	681a      	ldr	r2, [r3, #0]
 80014f2:	2101      	movs	r1, #1
 80014f4:	6a7b      	ldr	r3, [r7, #36]	@ 0x24
 80014f6:	fa01 f303 	lsl.w	r3, r1, r3
 80014fa:	4013      	ands	r3, r2
 80014fc:	623b      	str	r3, [r7, #32]
    
    if (currentpin)
 80014fe:	6a3b      	ldr	r3, [r7, #32]
 8001500:	2b00      	cmp	r3, #0
 8001502:	d049      	beq.n	8001598 <LL_GPIO_Init+0xe4>
    {
      
      if ((GPIO_InitStruct->Mode == LL_GPIO_MODE_OUTPUT) || (GPIO_InitStruct->Mode == LL_GPIO_MODE_ALTERNATE))
 8001504:	683b      	ldr	r3, [r7, #0]
 8001506:	685b      	ldr	r3, [r3, #4]
 8001508:	2b01      	cmp	r3, #1
 800150a:	d003      	beq.n	8001514 <LL_GPIO_Init+0x60>
 800150c:	683b      	ldr	r3, [r7, #0]
 800150e:	685b      	ldr	r3, [r3, #4]
 8001510:	2b02      	cmp	r3, #2
 8001512:	d10d      	bne.n	8001530 <LL_GPIO_Init+0x7c>
      {
        /* Check Speed mode parameters */
        assert_param(IS_LL_GPIO_SPEED(GPIO_InitStruct->Speed));
        
        /* Speed mode configuration */
        LL_GPIO_SetPinSpeed(GPIOx, currentpin, GPIO_InitStruct->Speed);
 8001514:	683b      	ldr	r3, [r7, #0]
 8001516:	689b      	ldr	r3, [r3, #8]
 8001518:	461a      	mov	r2, r3
 800151a:	6a39      	ldr	r1, [r7, #32]
 800151c:	6878      	ldr	r0, [r7, #4]
 800151e:	f7ff fed3 	bl	80012c8 <LL_GPIO_SetPinSpeed>
        
        /* Check Output mode parameters */
        assert_param(IS_LL_GPIO_OUTPUT_TYPE(GPIO_InitStruct->OutputType));
        
        /* Output mode configuration*/
        LL_GPIO_SetPinOutputType(GPIOx, currentpin, GPIO_InitStruct->OutputType);
 8001522:	683b      	ldr	r3, [r7, #0]
 8001524:	68db      	ldr	r3, [r3, #12]
 8001526:	461a      	mov	r2, r3
 8001528:	6a39      	ldr	r1, [r7, #32]
 800152a:	6878      	ldr	r0, [r7, #4]
 800152c:	f7ff feb4 	bl	8001298 <LL_GPIO_SetPinOutputType>
      }
      
      /* Pull-up Pull down resistor configuration*/
      LL_GPIO_SetPinPull(GPIOx, currentpin, GPIO_InitStruct->Pull);
 8001530:	683b      	ldr	r3, [r7, #0]
 8001532:	691b      	ldr	r3, [r3, #16]
 8001534:	461a      	mov	r2, r3
 8001536:	6a39      	ldr	r1, [r7, #32]
 8001538:	6878      	ldr	r0, [r7, #4]
 800153a:	f7ff ff02 	bl	8001342 <LL_GPIO_SetPinPull>
      
      if (GPIO_InitStruct->Mode == LL_GPIO_MODE_ALTERNATE)
 800153e:	683b      	ldr	r3, [r7, #0]
 8001540:	685b      	ldr	r3, [r3, #4]
 8001542:	2b02      	cmp	r3, #2
 8001544:	d121      	bne.n	800158a <LL_GPIO_Init+0xd6>
 8001546:	6a3b      	ldr	r3, [r7, #32]
 8001548:	60fb      	str	r3, [r7, #12]
   __ASM ("rbit %0, %1" : "=r" (result) : "r" (value) );
 800154a:	68fb      	ldr	r3, [r7, #12]
 800154c:	fa93 f3a3 	rbit	r3, r3
 8001550:	60bb      	str	r3, [r7, #8]
  return result;
 8001552:	68bb      	ldr	r3, [r7, #8]
 8001554:	613b      	str	r3, [r7, #16]
  if (value == 0U)
 8001556:	693b      	ldr	r3, [r7, #16]
 8001558:	2b00      	cmp	r3, #0
 800155a:	d101      	bne.n	8001560 <LL_GPIO_Init+0xac>
    return 32U;
 800155c:	2320      	movs	r3, #32
 800155e:	e003      	b.n	8001568 <LL_GPIO_Init+0xb4>
  return __builtin_clz(value);
 8001560:	693b      	ldr	r3, [r7, #16]
 8001562:	fab3 f383 	clz	r3, r3
 8001566:	b2db      	uxtb	r3, r3
      {
        /* Check Alternate parameter */
        assert_param(IS_LL_GPIO_ALTERNATE(GPIO_InitStruct->Alternate));
        
        /* Speed mode configuration */
        if (POSITION_VAL(currentpin) < 0x00000008U)
 8001568:	2b07      	cmp	r3, #7
 800156a:	d807      	bhi.n	800157c <LL_GPIO_Init+0xc8>
        {
          LL_GPIO_SetAFPin_0_7(GPIOx, currentpin, GPIO_InitStruct->Alternate);
 800156c:	683b      	ldr	r3, [r7, #0]
 800156e:	695b      	ldr	r3, [r3, #20]
 8001570:	461a      	mov	r2, r3
 8001572:	6a39      	ldr	r1, [r7, #32]
 8001574:	6878      	ldr	r0, [r7, #4]
 8001576:	f7ff ff21 	bl	80013bc <LL_GPIO_SetAFPin_0_7>
 800157a:	e006      	b.n	800158a <LL_GPIO_Init+0xd6>
        }
        else
        {
          LL_GPIO_SetAFPin_8_15(GPIOx, currentpin, GPIO_InitStruct->Alternate);
 800157c:	683b      	ldr	r3, [r7, #0]
 800157e:	695b      	ldr	r3, [r3, #20]
 8001580:	461a      	mov	r2, r3
 8001582:	6a39      	ldr	r1, [r7, #32]
 8001584:	6878      	ldr	r0, [r7, #4]
 8001586:	f7ff ff56 	bl	8001436 <LL_GPIO_SetAFPin_8_15>
        }
      }
      
      /* Pin Mode configuration */
      LL_GPIO_SetPinMode(GPIOx, currentpin, GPIO_InitStruct->Mode);
 800158a:	683b      	ldr	r3, [r7, #0]
 800158c:	685b      	ldr	r3, [r3, #4]
 800158e:	461a      	mov	r2, r3
 8001590:	6a39      	ldr	r1, [r7, #32]
 8001592:	6878      	ldr	r0, [r7, #4]
 8001594:	f7ff fe43 	bl	800121e <LL_GPIO_SetPinMode>
    }
    pinpos++;
 8001598:	6a7b      	ldr	r3, [r7, #36]	@ 0x24
 800159a:	3301      	adds	r3, #1
 800159c:	627b      	str	r3, [r7, #36]	@ 0x24
  while (((GPIO_InitStruct->Pin) >> pinpos) != 0x00000000U)
 800159e:	683b      	ldr	r3, [r7, #0]
 80015a0:	681a      	ldr	r2, [r3, #0]
 80015a2:	6a7b      	ldr	r3, [r7, #36]	@ 0x24
 80015a4:	fa22 f303 	lsr.w	r3, r2, r3
 80015a8:	2b00      	cmp	r3, #0
 80015aa:	d1a0      	bne.n	80014ee <LL_GPIO_Init+0x3a>
  }

  return (SUCCESS);
 80015ac:	2300      	movs	r3, #0
}
 80015ae:	4618      	mov	r0, r3
 80015b0:	3728      	adds	r7, #40	@ 0x28
 80015b2:	46bd      	mov	sp, r7
 80015b4:	bd80      	pop	{r7, pc}
	...

080015b8 <LL_RCC_GetSysClkSource>:
{
 80015b8:	b480      	push	{r7}
 80015ba:	af00      	add	r7, sp, #0
  return (uint32_t)(READ_BIT(RCC->CFGR, RCC_CFGR_SWS));
 80015bc:	4b04      	ldr	r3, [pc, #16]	@ (80015d0 <LL_RCC_GetSysClkSource+0x18>)
 80015be:	689b      	ldr	r3, [r3, #8]
 80015c0:	f003 030c 	and.w	r3, r3, #12
}
 80015c4:	4618      	mov	r0, r3
 80015c6:	46bd      	mov	sp, r7
 80015c8:	f85d 7b04 	ldr.w	r7, [sp], #4
 80015cc:	4770      	bx	lr
 80015ce:	bf00      	nop
 80015d0:	40023800 	.word	0x40023800

080015d4 <LL_RCC_GetAHBPrescaler>:
{
 80015d4:	b480      	push	{r7}
 80015d6:	af00      	add	r7, sp, #0
  return (uint32_t)(READ_BIT(RCC->CFGR, RCC_CFGR_HPRE));
 80015d8:	4b04      	ldr	r3, [pc, #16]	@ (80015ec <LL_RCC_GetAHBPrescaler+0x18>)
 80015da:	689b      	ldr	r3, [r3, #8]
 80015dc:	f003 03f0 	and.w	r3, r3, #240	@ 0xf0
}
 80015e0:	4618      	mov	r0, r3
 80015e2:	46bd      	mov	sp, r7
 80015e4:	f85d 7b04 	ldr.w	r7, [sp], #4
 80015e8:	4770      	bx	lr
 80015ea:	bf00      	nop
 80015ec:	40023800 	.word	0x40023800

080015f0 <LL_RCC_GetAPB1Prescaler>:
{
 80015f0:	b480      	push	{r7}
 80015f2:	af00      	add	r7, sp, #0
  return (uint32_t)(READ_BIT(RCC->CFGR, RCC_CFGR_PPRE1));
 80015f4:	4b04      	ldr	r3, [pc, #16]	@ (8001608 <LL_RCC_GetAPB1Prescaler+0x18>)
 80015f6:	689b      	ldr	r3, [r3, #8]
 80015f8:	f403 53e0 	and.w	r3, r3, #7168	@ 0x1c00
}
 80015fc:	4618      	mov	r0, r3
 80015fe:	46bd      	mov	sp, r7
 8001600:	f85d 7b04 	ldr.w	r7, [sp], #4
 8001604:	4770      	bx	lr
 8001606:	bf00      	nop
 8001608:	40023800 	.word	0x40023800

0800160c <LL_RCC_GetAPB2Prescaler>:
{
 800160c:	b480      	push	{r7}
 800160e:	af00      	add	r7, sp, #0
  return (uint32_t)(READ_BIT(RCC->CFGR, RCC_CFGR_PPRE2));
 8001610:	4b04      	ldr	r3, [pc, #16]	@ (8001624 <LL_RCC_GetAPB2Prescaler+0x18>)
 8001612:	689b      	ldr	r3, [r3, #8]
 8001614:	f403 4360 	and.w	r3, r3, #57344	@ 0xe000
}
 8001618:	4618      	mov	r0, r3
 800161a:	46bd      	mov	sp, r7
 800161c:	f85d 7b04 	ldr.w	r7, [sp], #4
 8001620:	4770      	bx	lr
 8001622:	bf00      	nop
 8001624:	40023800 	.word	0x40023800

08001628 <LL_RCC_PLL_GetMainSource>:
  * @retval Returned value can be one of the following values:
  *         @arg @ref LL_RCC_PLLSOURCE_HSI
  *         @arg @ref LL_RCC_PLLSOURCE_HSE
  */
__STATIC_INLINE uint32_t LL_RCC_PLL_GetMainSource(void)
{
 8001628:	b480      	push	{r7}
 800162a:	af00      	add	r7, sp, #0
  return (uint32_t)(READ_BIT(RCC->PLLCFGR, RCC_PLLCFGR_PLLSRC));
 800162c:	4b04      	ldr	r3, [pc, #16]	@ (8001640 <LL_RCC_PLL_GetMainSource+0x18>)
 800162e:	685b      	ldr	r3, [r3, #4]
 8001630:	f403 0380 	and.w	r3, r3, #4194304	@ 0x400000
}
 8001634:	4618      	mov	r0, r3
 8001636:	46bd      	mov	sp, r7
 8001638:	f85d 7b04 	ldr.w	r7, [sp], #4
 800163c:	4770      	bx	lr
 800163e:	bf00      	nop
 8001640:	40023800 	.word	0x40023800

08001644 <LL_RCC_PLL_GetN>:
  * @retval Between 50/192(*) and 432
  *
  *         (*) value not defined in all devices.
  */
__STATIC_INLINE uint32_t LL_RCC_PLL_GetN(void)
{
 8001644:	b480      	push	{r7}
 8001646:	af00      	add	r7, sp, #0
  return (uint32_t)(READ_BIT(RCC->PLLCFGR, RCC_PLLCFGR_PLLN) >>  RCC_PLLCFGR_PLLN_Pos);
 8001648:	4b04      	ldr	r3, [pc, #16]	@ (800165c <LL_RCC_PLL_GetN+0x18>)
 800164a:	685b      	ldr	r3, [r3, #4]
 800164c:	099b      	lsrs	r3, r3, #6
 800164e:	f3c3 0308 	ubfx	r3, r3, #0, #9
}
 8001652:	4618      	mov	r0, r3
 8001654:	46bd      	mov	sp, r7
 8001656:	f85d 7b04 	ldr.w	r7, [sp], #4
 800165a:	4770      	bx	lr
 800165c:	40023800 	.word	0x40023800

08001660 <LL_RCC_PLL_GetP>:
  *         @arg @ref LL_RCC_PLLP_DIV_4
  *         @arg @ref LL_RCC_PLLP_DIV_6
  *         @arg @ref LL_RCC_PLLP_DIV_8
  */
__STATIC_INLINE uint32_t LL_RCC_PLL_GetP(void)
{
 8001660:	b480      	push	{r7}
 8001662:	af00      	add	r7, sp, #0
  return (uint32_t)(READ_BIT(RCC->PLLCFGR, RCC_PLLCFGR_PLLP));
 8001664:	4b04      	ldr	r3, [pc, #16]	@ (8001678 <LL_RCC_PLL_GetP+0x18>)
 8001666:	685b      	ldr	r3, [r3, #4]
 8001668:	f403 3340 	and.w	r3, r3, #196608	@ 0x30000
}
 800166c:	4618      	mov	r0, r3
 800166e:	46bd      	mov	sp, r7
 8001670:	f85d 7b04 	ldr.w	r7, [sp], #4
 8001674:	4770      	bx	lr
 8001676:	bf00      	nop
 8001678:	40023800 	.word	0x40023800

0800167c <LL_RCC_PLL_GetDivider>:
  *         @arg @ref LL_RCC_PLLM_DIV_61
  *         @arg @ref LL_RCC_PLLM_DIV_62
  *         @arg @ref LL_RCC_PLLM_DIV_63
  */
__STATIC_INLINE uint32_t LL_RCC_PLL_GetDivider(void)
{
 800167c:	b480      	push	{r7}
 800167e:	af00      	add	r7, sp, #0
  return (uint32_t)(READ_BIT(RCC->PLLCFGR, RCC_PLLCFGR_PLLM));
 8001680:	4b04      	ldr	r3, [pc, #16]	@ (8001694 <LL_RCC_PLL_GetDivider+0x18>)
 8001682:	685b      	ldr	r3, [r3, #4]
 8001684:	f003 033f 	and.w	r3, r3, #63	@ 0x3f
}
 8001688:	4618      	mov	r0, r3
 800168a:	46bd      	mov	sp, r7
 800168c:	f85d 7b04 	ldr.w	r7, [sp], #4
 8001690:	4770      	bx	lr
 8001692:	bf00      	nop
 8001694:	40023800 	.word	0x40023800

08001698 <LL_RCC_GetSystemClocksFreq>:
  *         configuration based on this function will be incorrect.
  * @param  RCC_Clocks pointer to a @ref LL_RCC_ClocksTypeDef structure which will hold the clocks frequencies
  * @retval None
  */
void LL_RCC_GetSystemClocksFreq(LL_RCC_ClocksTypeDef *RCC_Clocks)
{
 8001698:	b580      	push	{r7, lr}
 800169a:	b082      	sub	sp, #8
 800169c:	af00      	add	r7, sp, #0
 800169e:	6078      	str	r0, [r7, #4]
  /* Get SYSCLK frequency */
  RCC_Clocks->SYSCLK_Frequency = RCC_GetSystemClockFreq();
 80016a0:	f000 f820 	bl	80016e4 <RCC_GetSystemClockFreq>
 80016a4:	4602      	mov	r2, r0
 80016a6:	687b      	ldr	r3, [r7, #4]
 80016a8:	601a      	str	r2, [r3, #0]

  /* HCLK clock frequency */
  RCC_Clocks->HCLK_Frequency   = RCC_GetHCLKClockFreq(RCC_Clocks->SYSCLK_Frequency);
 80016aa:	687b      	ldr	r3, [r7, #4]
 80016ac:	681b      	ldr	r3, [r3, #0]
 80016ae:	4618      	mov	r0, r3
 80016b0:	f000 f840 	bl	8001734 <RCC_GetHCLKClockFreq>
 80016b4:	4602      	mov	r2, r0
 80016b6:	687b      	ldr	r3, [r7, #4]
 80016b8:	605a      	str	r2, [r3, #4]

  /* PCLK1 clock frequency */
  RCC_Clocks->PCLK1_Frequency  = RCC_GetPCLK1ClockFreq(RCC_Clocks->HCLK_Frequency);
 80016ba:	687b      	ldr	r3, [r7, #4]
 80016bc:	685b      	ldr	r3, [r3, #4]
 80016be:	4618      	mov	r0, r3
 80016c0:	f000 f84e 	bl	8001760 <RCC_GetPCLK1ClockFreq>
 80016c4:	4602      	mov	r2, r0
 80016c6:	687b      	ldr	r3, [r7, #4]
 80016c8:	609a      	str	r2, [r3, #8]

  /* PCLK2 clock frequency */
  RCC_Clocks->PCLK2_Frequency  = RCC_GetPCLK2ClockFreq(RCC_Clocks->HCLK_Frequency);
 80016ca:	687b      	ldr	r3, [r7, #4]
 80016cc:	685b      	ldr	r3, [r3, #4]
 80016ce:	4618      	mov	r0, r3
 80016d0:	f000 f85a 	bl	8001788 <RCC_GetPCLK2ClockFreq>
 80016d4:	4602      	mov	r2, r0
 80016d6:	687b      	ldr	r3, [r7, #4]
 80016d8:	60da      	str	r2, [r3, #12]
}
 80016da:	bf00      	nop
 80016dc:	3708      	adds	r7, #8
 80016de:	46bd      	mov	sp, r7
 80016e0:	bd80      	pop	{r7, pc}
	...

080016e4 <RCC_GetSystemClockFreq>:
/**
  * @brief  Return SYSTEM clock frequency
  * @retval SYSTEM clock frequency (in Hz)
  */
uint32_t RCC_GetSystemClockFreq(void)
{
 80016e4:	b580      	push	{r7, lr}
 80016e6:	b082      	sub	sp, #8
 80016e8:	af00      	add	r7, sp, #0
  uint32_t frequency = 0U;
 80016ea:	2300      	movs	r3, #0
 80016ec:	607b      	str	r3, [r7, #4]

  /* Get SYSCLK source -------------------------------------------------------*/
  switch (LL_RCC_GetSysClkSource())
 80016ee:	f7ff ff63 	bl	80015b8 <LL_RCC_GetSysClkSource>
 80016f2:	4603      	mov	r3, r0
 80016f4:	2b08      	cmp	r3, #8
 80016f6:	d00c      	beq.n	8001712 <RCC_GetSystemClockFreq+0x2e>
 80016f8:	2b08      	cmp	r3, #8
 80016fa:	d80f      	bhi.n	800171c <RCC_GetSystemClockFreq+0x38>
 80016fc:	2b00      	cmp	r3, #0
 80016fe:	d002      	beq.n	8001706 <RCC_GetSystemClockFreq+0x22>
 8001700:	2b04      	cmp	r3, #4
 8001702:	d003      	beq.n	800170c <RCC_GetSystemClockFreq+0x28>
 8001704:	e00a      	b.n	800171c <RCC_GetSystemClockFreq+0x38>
  {
    case LL_RCC_SYS_CLKSOURCE_STATUS_HSI:  /* HSI used as system clock  source */
      frequency = HSI_VALUE;
 8001706:	4b09      	ldr	r3, [pc, #36]	@ (800172c <RCC_GetSystemClockFreq+0x48>)
 8001708:	607b      	str	r3, [r7, #4]
      break;
 800170a:	e00a      	b.n	8001722 <RCC_GetSystemClockFreq+0x3e>

    case LL_RCC_SYS_CLKSOURCE_STATUS_HSE:  /* HSE used as system clock  source */
      frequency = HSE_VALUE;
 800170c:	4b08      	ldr	r3, [pc, #32]	@ (8001730 <RCC_GetSystemClockFreq+0x4c>)
 800170e:	607b      	str	r3, [r7, #4]
      break;
 8001710:	e007      	b.n	8001722 <RCC_GetSystemClockFreq+0x3e>

    case LL_RCC_SYS_CLKSOURCE_STATUS_PLL:  /* PLL used as system clock  source */
      frequency = RCC_PLL_GetFreqDomain_SYS(LL_RCC_SYS_CLKSOURCE_STATUS_PLL);
 8001712:	2008      	movs	r0, #8
 8001714:	f000 f84c 	bl	80017b0 <RCC_PLL_GetFreqDomain_SYS>
 8001718:	6078      	str	r0, [r7, #4]
      break;
 800171a:	e002      	b.n	8001722 <RCC_GetSystemClockFreq+0x3e>
      frequency = RCC_PLL_GetFreqDomain_SYS(LL_RCC_SYS_CLKSOURCE_STATUS_PLLR);
      break;
#endif /* RCC_PLLR_SYSCLK_SUPPORT */

    default:
      frequency = HSI_VALUE;
 800171c:	4b03      	ldr	r3, [pc, #12]	@ (800172c <RCC_GetSystemClockFreq+0x48>)
 800171e:	607b      	str	r3, [r7, #4]
      break;
 8001720:	bf00      	nop
  }

  return frequency;
 8001722:	687b      	ldr	r3, [r7, #4]
}
 8001724:	4618      	mov	r0, r3
 8001726:	3708      	adds	r7, #8
 8001728:	46bd      	mov	sp, r7
 800172a:	bd80      	pop	{r7, pc}
 800172c:	00f42400 	.word	0x00f42400
 8001730:	007a1200 	.word	0x007a1200

08001734 <RCC_GetHCLKClockFreq>:
  * @brief  Return HCLK clock frequency
  * @param  SYSCLK_Frequency SYSCLK clock frequency
  * @retval HCLK clock frequency (in Hz)
  */
uint32_t RCC_GetHCLKClockFreq(uint32_t SYSCLK_Frequency)
{
 8001734:	b580      	push	{r7, lr}
 8001736:	b082      	sub	sp, #8
 8001738:	af00      	add	r7, sp, #0
 800173a:	6078      	str	r0, [r7, #4]
  /* HCLK clock frequency */
  return __LL_RCC_CALC_HCLK_FREQ(SYSCLK_Frequency, LL_RCC_GetAHBPrescaler());
 800173c:	f7ff ff4a 	bl	80015d4 <LL_RCC_GetAHBPrescaler>
 8001740:	4603      	mov	r3, r0
 8001742:	091b      	lsrs	r3, r3, #4
 8001744:	f003 030f 	and.w	r3, r3, #15
 8001748:	4a04      	ldr	r2, [pc, #16]	@ (800175c <RCC_GetHCLKClockFreq+0x28>)
 800174a:	5cd3      	ldrb	r3, [r2, r3]
 800174c:	461a      	mov	r2, r3
 800174e:	687b      	ldr	r3, [r7, #4]
 8001750:	40d3      	lsrs	r3, r2
}
 8001752:	4618      	mov	r0, r3
 8001754:	3708      	adds	r7, #8
 8001756:	46bd      	mov	sp, r7
 8001758:	bd80      	pop	{r7, pc}
 800175a:	bf00      	nop
 800175c:	08002428 	.word	0x08002428

08001760 <RCC_GetPCLK1ClockFreq>:
  * @brief  Return PCLK1 clock frequency
  * @param  HCLK_Frequency HCLK clock frequency
  * @retval PCLK1 clock frequency (in Hz)
  */
uint32_t RCC_GetPCLK1ClockFreq(uint32_t HCLK_Frequency)
{
 8001760:	b580      	push	{r7, lr}
 8001762:	b082      	sub	sp, #8
 8001764:	af00      	add	r7, sp, #0
 8001766:	6078      	str	r0, [r7, #4]
  /* PCLK1 clock frequency */
  return __LL_RCC_CALC_PCLK1_FREQ(HCLK_Frequency, LL_RCC_GetAPB1Prescaler());
 8001768:	f7ff ff42 	bl	80015f0 <LL_RCC_GetAPB1Prescaler>
 800176c:	4603      	mov	r3, r0
 800176e:	0a9b      	lsrs	r3, r3, #10
 8001770:	4a04      	ldr	r2, [pc, #16]	@ (8001784 <RCC_GetPCLK1ClockFreq+0x24>)
 8001772:	5cd3      	ldrb	r3, [r2, r3]
 8001774:	461a      	mov	r2, r3
 8001776:	687b      	ldr	r3, [r7, #4]
 8001778:	40d3      	lsrs	r3, r2
}
 800177a:	4618      	mov	r0, r3
 800177c:	3708      	adds	r7, #8
 800177e:	46bd      	mov	sp, r7
 8001780:	bd80      	pop	{r7, pc}
 8001782:	bf00      	nop
 8001784:	08002438 	.word	0x08002438

08001788 <RCC_GetPCLK2ClockFreq>:
  * @brief  Return PCLK2 clock frequency
  * @param  HCLK_Frequency HCLK clock frequency
  * @retval PCLK2 clock frequency (in Hz)
  */
uint32_t RCC_GetPCLK2ClockFreq(uint32_t HCLK_Frequency)
{
 8001788:	b580      	push	{r7, lr}
 800178a:	b082      	sub	sp, #8
 800178c:	af00      	add	r7, sp, #0
 800178e:	6078      	str	r0, [r7, #4]
  /* PCLK2 clock frequency */
  return __LL_RCC_CALC_PCLK2_FREQ(HCLK_Frequency, LL_RCC_GetAPB2Prescaler());
 8001790:	f7ff ff3c 	bl	800160c <LL_RCC_GetAPB2Prescaler>
 8001794:	4603      	mov	r3, r0
 8001796:	0b5b      	lsrs	r3, r3, #13
 8001798:	4a04      	ldr	r2, [pc, #16]	@ (80017ac <RCC_GetPCLK2ClockFreq+0x24>)
 800179a:	5cd3      	ldrb	r3, [r2, r3]
 800179c:	461a      	mov	r2, r3
 800179e:	687b      	ldr	r3, [r7, #4]
 80017a0:	40d3      	lsrs	r3, r2
}
 80017a2:	4618      	mov	r0, r3
 80017a4:	3708      	adds	r7, #8
 80017a6:	46bd      	mov	sp, r7
 80017a8:	bd80      	pop	{r7, pc}
 80017aa:	bf00      	nop
 80017ac:	08002438 	.word	0x08002438

080017b0 <RCC_PLL_GetFreqDomain_SYS>:
  * @brief  Return PLL clock frequency used for system domain
  * @param  SYSCLK_Source System clock source
  * @retval PLL clock frequency (in Hz)
  */
uint32_t RCC_PLL_GetFreqDomain_SYS(uint32_t SYSCLK_Source)
{
 80017b0:	b590      	push	{r4, r7, lr}
 80017b2:	b087      	sub	sp, #28
 80017b4:	af00      	add	r7, sp, #0
 80017b6:	6078      	str	r0, [r7, #4]
  uint32_t pllinputfreq = 0U;
 80017b8:	2300      	movs	r3, #0
 80017ba:	617b      	str	r3, [r7, #20]
  uint32_t pllsource = 0U;
 80017bc:	2300      	movs	r3, #0
 80017be:	60fb      	str	r3, [r7, #12]
  uint32_t plloutputfreq = 0U;
 80017c0:	2300      	movs	r3, #0
 80017c2:	613b      	str	r3, [r7, #16]

  /* PLL_VCO = (HSE_VALUE or HSI_VALUE / PLLM) * PLLN
     SYSCLK = PLL_VCO / (PLLP or PLLR)
  */
  pllsource = LL_RCC_PLL_GetMainSource();
 80017c4:	f7ff ff30 	bl	8001628 <LL_RCC_PLL_GetMainSource>
 80017c8:	60f8      	str	r0, [r7, #12]

  switch (pllsource)
 80017ca:	68fb      	ldr	r3, [r7, #12]
 80017cc:	2b00      	cmp	r3, #0
 80017ce:	d004      	beq.n	80017da <RCC_PLL_GetFreqDomain_SYS+0x2a>
 80017d0:	68fb      	ldr	r3, [r7, #12]
 80017d2:	f5b3 0f80 	cmp.w	r3, #4194304	@ 0x400000
 80017d6:	d003      	beq.n	80017e0 <RCC_PLL_GetFreqDomain_SYS+0x30>
 80017d8:	e005      	b.n	80017e6 <RCC_PLL_GetFreqDomain_SYS+0x36>
  {
    case LL_RCC_PLLSOURCE_HSI:  /* HSI used as PLL clock source */
      pllinputfreq = HSI_VALUE;
 80017da:	4b12      	ldr	r3, [pc, #72]	@ (8001824 <RCC_PLL_GetFreqDomain_SYS+0x74>)
 80017dc:	617b      	str	r3, [r7, #20]
      break;
 80017de:	e005      	b.n	80017ec <RCC_PLL_GetFreqDomain_SYS+0x3c>

    case LL_RCC_PLLSOURCE_HSE:  /* HSE used as PLL clock source */
      pllinputfreq = HSE_VALUE;
 80017e0:	4b11      	ldr	r3, [pc, #68]	@ (8001828 <RCC_PLL_GetFreqDomain_SYS+0x78>)
 80017e2:	617b      	str	r3, [r7, #20]
      break;
 80017e4:	e002      	b.n	80017ec <RCC_PLL_GetFreqDomain_SYS+0x3c>

    default:
      pllinputfreq = HSI_VALUE;
 80017e6:	4b0f      	ldr	r3, [pc, #60]	@ (8001824 <RCC_PLL_GetFreqDomain_SYS+0x74>)
 80017e8:	617b      	str	r3, [r7, #20]
      break;
 80017ea:	bf00      	nop
  }

  if (SYSCLK_Source == LL_RCC_SYS_CLKSOURCE_STATUS_PLL)
 80017ec:	687b      	ldr	r3, [r7, #4]
 80017ee:	2b08      	cmp	r3, #8
 80017f0:	d113      	bne.n	800181a <RCC_PLL_GetFreqDomain_SYS+0x6a>
  {
    plloutputfreq = __LL_RCC_CALC_PLLCLK_FREQ(pllinputfreq, LL_RCC_PLL_GetDivider(),
 80017f2:	f7ff ff43 	bl	800167c <LL_RCC_PLL_GetDivider>
 80017f6:	4602      	mov	r2, r0
 80017f8:	697b      	ldr	r3, [r7, #20]
 80017fa:	fbb3 f4f2 	udiv	r4, r3, r2
 80017fe:	f7ff ff21 	bl	8001644 <LL_RCC_PLL_GetN>
 8001802:	4603      	mov	r3, r0
 8001804:	fb03 f404 	mul.w	r4, r3, r4
 8001808:	f7ff ff2a 	bl	8001660 <LL_RCC_PLL_GetP>
 800180c:	4603      	mov	r3, r0
 800180e:	0c1b      	lsrs	r3, r3, #16
 8001810:	3301      	adds	r3, #1
 8001812:	005b      	lsls	r3, r3, #1
 8001814:	fbb4 f3f3 	udiv	r3, r4, r3
 8001818:	613b      	str	r3, [r7, #16]
    plloutputfreq = __LL_RCC_CALC_PLLRCLK_FREQ(pllinputfreq, LL_RCC_PLL_GetDivider(),
                                               LL_RCC_PLL_GetN(), LL_RCC_PLL_GetR());
  }
#endif /* RCC_PLLR_SYSCLK_SUPPORT */

  return plloutputfreq;
 800181a:	693b      	ldr	r3, [r7, #16]
}
 800181c:	4618      	mov	r0, r3
 800181e:	371c      	adds	r7, #28
 8001820:	46bd      	mov	sp, r7
 8001822:	bd90      	pop	{r4, r7, pc}
 8001824:	00f42400 	.word	0x00f42400
 8001828:	007a1200 	.word	0x007a1200

0800182c <LL_TIM_SetPrescaler>:
{
 800182c:	b480      	push	{r7}
 800182e:	b083      	sub	sp, #12
 8001830:	af00      	add	r7, sp, #0
 8001832:	6078      	str	r0, [r7, #4]
 8001834:	6039      	str	r1, [r7, #0]
  WRITE_REG(TIMx->PSC, Prescaler);
 8001836:	687b      	ldr	r3, [r7, #4]
 8001838:	683a      	ldr	r2, [r7, #0]
 800183a:	629a      	str	r2, [r3, #40]	@ 0x28
}
 800183c:	bf00      	nop
 800183e:	370c      	adds	r7, #12
 8001840:	46bd      	mov	sp, r7
 8001842:	f85d 7b04 	ldr.w	r7, [sp], #4
 8001846:	4770      	bx	lr

08001848 <LL_TIM_SetAutoReload>:
{
 8001848:	b480      	push	{r7}
 800184a:	b083      	sub	sp, #12
 800184c:	af00      	add	r7, sp, #0
 800184e:	6078      	str	r0, [r7, #4]
 8001850:	6039      	str	r1, [r7, #0]
  WRITE_REG(TIMx->ARR, AutoReload);
 8001852:	687b      	ldr	r3, [r7, #4]
 8001854:	683a      	ldr	r2, [r7, #0]
 8001856:	62da      	str	r2, [r3, #44]	@ 0x2c
}
 8001858:	bf00      	nop
 800185a:	370c      	adds	r7, #12
 800185c:	46bd      	mov	sp, r7
 800185e:	f85d 7b04 	ldr.w	r7, [sp], #4
 8001862:	4770      	bx	lr

08001864 <LL_TIM_SetRepetitionCounter>:
{
 8001864:	b480      	push	{r7}
 8001866:	b083      	sub	sp, #12
 8001868:	af00      	add	r7, sp, #0
 800186a:	6078      	str	r0, [r7, #4]
 800186c:	6039      	str	r1, [r7, #0]
  WRITE_REG(TIMx->RCR, RepetitionCounter);
 800186e:	687b      	ldr	r3, [r7, #4]
 8001870:	683a      	ldr	r2, [r7, #0]
 8001872:	631a      	str	r2, [r3, #48]	@ 0x30
}
 8001874:	bf00      	nop
 8001876:	370c      	adds	r7, #12
 8001878:	46bd      	mov	sp, r7
 800187a:	f85d 7b04 	ldr.w	r7, [sp], #4
 800187e:	4770      	bx	lr

08001880 <LL_TIM_OC_SetCompareCH1>:
{
 8001880:	b480      	push	{r7}
 8001882:	b083      	sub	sp, #12
 8001884:	af00      	add	r7, sp, #0
 8001886:	6078      	str	r0, [r7, #4]
 8001888:	6039      	str	r1, [r7, #0]
  WRITE_REG(TIMx->CCR1, CompareValue);
 800188a:	687b      	ldr	r3, [r7, #4]
 800188c:	683a      	ldr	r2, [r7, #0]
 800188e:	635a      	str	r2, [r3, #52]	@ 0x34
}
 8001890:	bf00      	nop
 8001892:	370c      	adds	r7, #12
 8001894:	46bd      	mov	sp, r7
 8001896:	f85d 7b04 	ldr.w	r7, [sp], #4
 800189a:	4770      	bx	lr

0800189c <LL_TIM_OC_SetCompareCH2>:
{
 800189c:	b480      	push	{r7}
 800189e:	b083      	sub	sp, #12
 80018a0:	af00      	add	r7, sp, #0
 80018a2:	6078      	str	r0, [r7, #4]
 80018a4:	6039      	str	r1, [r7, #0]
  WRITE_REG(TIMx->CCR2, CompareValue);
 80018a6:	687b      	ldr	r3, [r7, #4]
 80018a8:	683a      	ldr	r2, [r7, #0]
 80018aa:	639a      	str	r2, [r3, #56]	@ 0x38
}
 80018ac:	bf00      	nop
 80018ae:	370c      	adds	r7, #12
 80018b0:	46bd      	mov	sp, r7
 80018b2:	f85d 7b04 	ldr.w	r7, [sp], #4
 80018b6:	4770      	bx	lr

080018b8 <LL_TIM_OC_SetCompareCH3>:
{
 80018b8:	b480      	push	{r7}
 80018ba:	b083      	sub	sp, #12
 80018bc:	af00      	add	r7, sp, #0
 80018be:	6078      	str	r0, [r7, #4]
 80018c0:	6039      	str	r1, [r7, #0]
  WRITE_REG(TIMx->CCR3, CompareValue);
 80018c2:	687b      	ldr	r3, [r7, #4]
 80018c4:	683a      	ldr	r2, [r7, #0]
 80018c6:	63da      	str	r2, [r3, #60]	@ 0x3c
}
 80018c8:	bf00      	nop
 80018ca:	370c      	adds	r7, #12
 80018cc:	46bd      	mov	sp, r7
 80018ce:	f85d 7b04 	ldr.w	r7, [sp], #4
 80018d2:	4770      	bx	lr

080018d4 <LL_TIM_OC_SetCompareCH4>:
{
 80018d4:	b480      	push	{r7}
 80018d6:	b083      	sub	sp, #12
 80018d8:	af00      	add	r7, sp, #0
 80018da:	6078      	str	r0, [r7, #4]
 80018dc:	6039      	str	r1, [r7, #0]
  WRITE_REG(TIMx->CCR4, CompareValue);
 80018de:	687b      	ldr	r3, [r7, #4]
 80018e0:	683a      	ldr	r2, [r7, #0]
 80018e2:	641a      	str	r2, [r3, #64]	@ 0x40
}
 80018e4:	bf00      	nop
 80018e6:	370c      	adds	r7, #12
 80018e8:	46bd      	mov	sp, r7
 80018ea:	f85d 7b04 	ldr.w	r7, [sp], #4
 80018ee:	4770      	bx	lr

080018f0 <LL_TIM_GenerateEvent_UPDATE>:
  * @rmtoll EGR          UG            LL_TIM_GenerateEvent_UPDATE
  * @param  TIMx Timer instance
  * @retval None
  */
__STATIC_INLINE void LL_TIM_GenerateEvent_UPDATE(TIM_TypeDef *TIMx)
{
 80018f0:	b480      	push	{r7}
 80018f2:	b083      	sub	sp, #12
 80018f4:	af00      	add	r7, sp, #0
 80018f6:	6078      	str	r0, [r7, #4]
  SET_BIT(TIMx->EGR, TIM_EGR_UG);
 80018f8:	687b      	ldr	r3, [r7, #4]
 80018fa:	695b      	ldr	r3, [r3, #20]
 80018fc:	f043 0201 	orr.w	r2, r3, #1
 8001900:	687b      	ldr	r3, [r7, #4]
 8001902:	615a      	str	r2, [r3, #20]
}
 8001904:	bf00      	nop
 8001906:	370c      	adds	r7, #12
 8001908:	46bd      	mov	sp, r7
 800190a:	f85d 7b04 	ldr.w	r7, [sp], #4
 800190e:	4770      	bx	lr

08001910 <LL_TIM_Init>:
  * @retval An ErrorStatus enumeration value:
  *          - SUCCESS: TIMx registers are de-initialized
  *          - ERROR: not applicable
  */
ErrorStatus LL_TIM_Init(TIM_TypeDef *TIMx, const LL_TIM_InitTypeDef *TIM_InitStruct)
{
 8001910:	b580      	push	{r7, lr}
 8001912:	b084      	sub	sp, #16
 8001914:	af00      	add	r7, sp, #0
 8001916:	6078      	str	r0, [r7, #4]
 8001918:	6039      	str	r1, [r7, #0]
  /* Check the parameters */
  assert_param(IS_TIM_INSTANCE(TIMx));
  assert_param(IS_LL_TIM_COUNTERMODE(TIM_InitStruct->CounterMode));
  assert_param(IS_LL_TIM_CLOCKDIVISION(TIM_InitStruct->ClockDivision));

  tmpcr1 = LL_TIM_ReadReg(TIMx, CR1);
 800191a:	687b      	ldr	r3, [r7, #4]
 800191c:	681b      	ldr	r3, [r3, #0]
 800191e:	60fb      	str	r3, [r7, #12]

  if (IS_TIM_COUNTER_MODE_SELECT_INSTANCE(TIMx))
 8001920:	687b      	ldr	r3, [r7, #4]
 8001922:	4a31      	ldr	r2, [pc, #196]	@ (80019e8 <LL_TIM_Init+0xd8>)
 8001924:	4293      	cmp	r3, r2
 8001926:	d00f      	beq.n	8001948 <LL_TIM_Init+0x38>
 8001928:	687b      	ldr	r3, [r7, #4]
 800192a:	f1b3 4f80 	cmp.w	r3, #1073741824	@ 0x40000000
 800192e:	d00b      	beq.n	8001948 <LL_TIM_Init+0x38>
 8001930:	687b      	ldr	r3, [r7, #4]
 8001932:	4a2e      	ldr	r2, [pc, #184]	@ (80019ec <LL_TIM_Init+0xdc>)
 8001934:	4293      	cmp	r3, r2
 8001936:	d007      	beq.n	8001948 <LL_TIM_Init+0x38>
 8001938:	687b      	ldr	r3, [r7, #4]
 800193a:	4a2d      	ldr	r2, [pc, #180]	@ (80019f0 <LL_TIM_Init+0xe0>)
 800193c:	4293      	cmp	r3, r2
 800193e:	d003      	beq.n	8001948 <LL_TIM_Init+0x38>
 8001940:	687b      	ldr	r3, [r7, #4]
 8001942:	4a2c      	ldr	r2, [pc, #176]	@ (80019f4 <LL_TIM_Init+0xe4>)
 8001944:	4293      	cmp	r3, r2
 8001946:	d106      	bne.n	8001956 <LL_TIM_Init+0x46>
  {
    /* Select the Counter Mode */
    MODIFY_REG(tmpcr1, (TIM_CR1_DIR | TIM_CR1_CMS), TIM_InitStruct->CounterMode);
 8001948:	68fb      	ldr	r3, [r7, #12]
 800194a:	f023 0270 	bic.w	r2, r3, #112	@ 0x70
 800194e:	683b      	ldr	r3, [r7, #0]
 8001950:	685b      	ldr	r3, [r3, #4]
 8001952:	4313      	orrs	r3, r2
 8001954:	60fb      	str	r3, [r7, #12]
  }

  if (IS_TIM_CLOCK_DIVISION_INSTANCE(TIMx))
 8001956:	687b      	ldr	r3, [r7, #4]
 8001958:	4a23      	ldr	r2, [pc, #140]	@ (80019e8 <LL_TIM_Init+0xd8>)
 800195a:	4293      	cmp	r3, r2
 800195c:	d01b      	beq.n	8001996 <LL_TIM_Init+0x86>
 800195e:	687b      	ldr	r3, [r7, #4]
 8001960:	f1b3 4f80 	cmp.w	r3, #1073741824	@ 0x40000000
 8001964:	d017      	beq.n	8001996 <LL_TIM_Init+0x86>
 8001966:	687b      	ldr	r3, [r7, #4]
 8001968:	4a20      	ldr	r2, [pc, #128]	@ (80019ec <LL_TIM_Init+0xdc>)
 800196a:	4293      	cmp	r3, r2
 800196c:	d013      	beq.n	8001996 <LL_TIM_Init+0x86>
 800196e:	687b      	ldr	r3, [r7, #4]
 8001970:	4a1f      	ldr	r2, [pc, #124]	@ (80019f0 <LL_TIM_Init+0xe0>)
 8001972:	4293      	cmp	r3, r2
 8001974:	d00f      	beq.n	8001996 <LL_TIM_Init+0x86>
 8001976:	687b      	ldr	r3, [r7, #4]
 8001978:	4a1e      	ldr	r2, [pc, #120]	@ (80019f4 <LL_TIM_Init+0xe4>)
 800197a:	4293      	cmp	r3, r2
 800197c:	d00b      	beq.n	8001996 <LL_TIM_Init+0x86>
 800197e:	687b      	ldr	r3, [r7, #4]
 8001980:	4a1d      	ldr	r2, [pc, #116]	@ (80019f8 <LL_TIM_Init+0xe8>)
 8001982:	4293      	cmp	r3, r2
 8001984:	d007      	beq.n	8001996 <LL_TIM_Init+0x86>
 8001986:	687b      	ldr	r3, [r7, #4]
 8001988:	4a1c      	ldr	r2, [pc, #112]	@ (80019fc <LL_TIM_Init+0xec>)
 800198a:	4293      	cmp	r3, r2
 800198c:	d003      	beq.n	8001996 <LL_TIM_Init+0x86>
 800198e:	687b      	ldr	r3, [r7, #4]
 8001990:	4a1b      	ldr	r2, [pc, #108]	@ (8001a00 <LL_TIM_Init+0xf0>)
 8001992:	4293      	cmp	r3, r2
 8001994:	d106      	bne.n	80019a4 <LL_TIM_Init+0x94>
  {
    /* Set the clock division */
    MODIFY_REG(tmpcr1, TIM_CR1_CKD, TIM_InitStruct->ClockDivision);
 8001996:	68fb      	ldr	r3, [r7, #12]
 8001998:	f423 7240 	bic.w	r2, r3, #768	@ 0x300
 800199c:	683b      	ldr	r3, [r7, #0]
 800199e:	68db      	ldr	r3, [r3, #12]
 80019a0:	4313      	orrs	r3, r2
 80019a2:	60fb      	str	r3, [r7, #12]
  }

  /* Write to TIMx CR1 */
  LL_TIM_WriteReg(TIMx, CR1, tmpcr1);
 80019a4:	687b      	ldr	r3, [r7, #4]
 80019a6:	68fa      	ldr	r2, [r7, #12]
 80019a8:	601a      	str	r2, [r3, #0]

  /* Set the Autoreload value */
  LL_TIM_SetAutoReload(TIMx, TIM_InitStruct->Autoreload);
 80019aa:	683b      	ldr	r3, [r7, #0]
 80019ac:	689b      	ldr	r3, [r3, #8]
 80019ae:	4619      	mov	r1, r3
 80019b0:	6878      	ldr	r0, [r7, #4]
 80019b2:	f7ff ff49 	bl	8001848 <LL_TIM_SetAutoReload>

  /* Set the Prescaler value */
  LL_TIM_SetPrescaler(TIMx, TIM_InitStruct->Prescaler);
 80019b6:	683b      	ldr	r3, [r7, #0]
 80019b8:	881b      	ldrh	r3, [r3, #0]
 80019ba:	4619      	mov	r1, r3
 80019bc:	6878      	ldr	r0, [r7, #4]
 80019be:	f7ff ff35 	bl	800182c <LL_TIM_SetPrescaler>

  if (IS_TIM_REPETITION_COUNTER_INSTANCE(TIMx))
 80019c2:	687b      	ldr	r3, [r7, #4]
 80019c4:	4a08      	ldr	r2, [pc, #32]	@ (80019e8 <LL_TIM_Init+0xd8>)
 80019c6:	4293      	cmp	r3, r2
 80019c8:	d105      	bne.n	80019d6 <LL_TIM_Init+0xc6>
  {
    /* Set the Repetition Counter value */
    LL_TIM_SetRepetitionCounter(TIMx, TIM_InitStruct->RepetitionCounter);
 80019ca:	683b      	ldr	r3, [r7, #0]
 80019cc:	691b      	ldr	r3, [r3, #16]
 80019ce:	4619      	mov	r1, r3
 80019d0:	6878      	ldr	r0, [r7, #4]
 80019d2:	f7ff ff47 	bl	8001864 <LL_TIM_SetRepetitionCounter>
  }

  /* Generate an update event to reload the Prescaler
     and the repetition counter value (if applicable) immediately */
  LL_TIM_GenerateEvent_UPDATE(TIMx);
 80019d6:	6878      	ldr	r0, [r7, #4]
 80019d8:	f7ff ff8a 	bl	80018f0 <LL_TIM_GenerateEvent_UPDATE>

  return SUCCESS;
 80019dc:	2300      	movs	r3, #0
}
 80019de:	4618      	mov	r0, r3
 80019e0:	3710      	adds	r7, #16
 80019e2:	46bd      	mov	sp, r7
 80019e4:	bd80      	pop	{r7, pc}
 80019e6:	bf00      	nop
 80019e8:	40010000 	.word	0x40010000
 80019ec:	40000400 	.word	0x40000400
 80019f0:	40000800 	.word	0x40000800
 80019f4:	40000c00 	.word	0x40000c00
 80019f8:	40014000 	.word	0x40014000
 80019fc:	40014400 	.word	0x40014400
 8001a00:	40014800 	.word	0x40014800

08001a04 <LL_TIM_OC_Init>:
  * @retval An ErrorStatus enumeration value:
  *          - SUCCESS: TIMx output channel is initialized
  *          - ERROR: TIMx output channel is not initialized
  */
ErrorStatus LL_TIM_OC_Init(TIM_TypeDef *TIMx, uint32_t Channel, const LL_TIM_OC_InitTypeDef *TIM_OC_InitStruct)
{
 8001a04:	b580      	push	{r7, lr}
 8001a06:	b086      	sub	sp, #24
 8001a08:	af00      	add	r7, sp, #0
 8001a0a:	60f8      	str	r0, [r7, #12]
 8001a0c:	60b9      	str	r1, [r7, #8]
 8001a0e:	607a      	str	r2, [r7, #4]
  ErrorStatus result = ERROR;
 8001a10:	2301      	movs	r3, #1
 8001a12:	75fb      	strb	r3, [r7, #23]

  switch (Channel)
 8001a14:	68bb      	ldr	r3, [r7, #8]
 8001a16:	f5b3 5f80 	cmp.w	r3, #4096	@ 0x1000
 8001a1a:	d027      	beq.n	8001a6c <LL_TIM_OC_Init+0x68>
 8001a1c:	68bb      	ldr	r3, [r7, #8]
 8001a1e:	f5b3 5f80 	cmp.w	r3, #4096	@ 0x1000
 8001a22:	d82a      	bhi.n	8001a7a <LL_TIM_OC_Init+0x76>
 8001a24:	68bb      	ldr	r3, [r7, #8]
 8001a26:	f5b3 7f80 	cmp.w	r3, #256	@ 0x100
 8001a2a:	d018      	beq.n	8001a5e <LL_TIM_OC_Init+0x5a>
 8001a2c:	68bb      	ldr	r3, [r7, #8]
 8001a2e:	f5b3 7f80 	cmp.w	r3, #256	@ 0x100
 8001a32:	d822      	bhi.n	8001a7a <LL_TIM_OC_Init+0x76>
 8001a34:	68bb      	ldr	r3, [r7, #8]
 8001a36:	2b01      	cmp	r3, #1
 8001a38:	d003      	beq.n	8001a42 <LL_TIM_OC_Init+0x3e>
 8001a3a:	68bb      	ldr	r3, [r7, #8]
 8001a3c:	2b10      	cmp	r3, #16
 8001a3e:	d007      	beq.n	8001a50 <LL_TIM_OC_Init+0x4c>
      break;
    case LL_TIM_CHANNEL_CH4:
      result = OC4Config(TIMx, TIM_OC_InitStruct);
      break;
    default:
      break;
 8001a40:	e01b      	b.n	8001a7a <LL_TIM_OC_Init+0x76>
      result = OC1Config(TIMx, TIM_OC_InitStruct);
 8001a42:	6879      	ldr	r1, [r7, #4]
 8001a44:	68f8      	ldr	r0, [r7, #12]
 8001a46:	f000 f81f 	bl	8001a88 <OC1Config>
 8001a4a:	4603      	mov	r3, r0
 8001a4c:	75fb      	strb	r3, [r7, #23]
      break;
 8001a4e:	e015      	b.n	8001a7c <LL_TIM_OC_Init+0x78>
      result = OC2Config(TIMx, TIM_OC_InitStruct);
 8001a50:	6879      	ldr	r1, [r7, #4]
 8001a52:	68f8      	ldr	r0, [r7, #12]
 8001a54:	f000 f87e 	bl	8001b54 <OC2Config>
 8001a58:	4603      	mov	r3, r0
 8001a5a:	75fb      	strb	r3, [r7, #23]
      break;
 8001a5c:	e00e      	b.n	8001a7c <LL_TIM_OC_Init+0x78>
      result = OC3Config(TIMx, TIM_OC_InitStruct);
 8001a5e:	6879      	ldr	r1, [r7, #4]
 8001a60:	68f8      	ldr	r0, [r7, #12]
 8001a62:	f000 f8e1 	bl	8001c28 <OC3Config>
 8001a66:	4603      	mov	r3, r0
 8001a68:	75fb      	strb	r3, [r7, #23]
      break;
 8001a6a:	e007      	b.n	8001a7c <LL_TIM_OC_Init+0x78>
      result = OC4Config(TIMx, TIM_OC_InitStruct);
 8001a6c:	6879      	ldr	r1, [r7, #4]
 8001a6e:	68f8      	ldr	r0, [r7, #12]
 8001a70:	f000 f944 	bl	8001cfc <OC4Config>
 8001a74:	4603      	mov	r3, r0
 8001a76:	75fb      	strb	r3, [r7, #23]
      break;
 8001a78:	e000      	b.n	8001a7c <LL_TIM_OC_Init+0x78>
      break;
 8001a7a:	bf00      	nop
  }

  return result;
 8001a7c:	7dfb      	ldrb	r3, [r7, #23]
}
 8001a7e:	4618      	mov	r0, r3
 8001a80:	3718      	adds	r7, #24
 8001a82:	46bd      	mov	sp, r7
 8001a84:	bd80      	pop	{r7, pc}
	...

08001a88 <OC1Config>:
  * @retval An ErrorStatus enumeration value:
  *          - SUCCESS: TIMx registers are de-initialized
  *          - ERROR: not applicable
  */
static ErrorStatus OC1Config(TIM_TypeDef *TIMx, const LL_TIM_OC_InitTypeDef *TIM_OCInitStruct)
{
 8001a88:	b580      	push	{r7, lr}
 8001a8a:	b086      	sub	sp, #24
 8001a8c:	af00      	add	r7, sp, #0
 8001a8e:	6078      	str	r0, [r7, #4]
 8001a90:	6039      	str	r1, [r7, #0]
  assert_param(IS_LL_TIM_OCMODE(TIM_OCInitStruct->OCMode));
  assert_param(IS_LL_TIM_OCSTATE(TIM_OCInitStruct->OCState));
  assert_param(IS_LL_TIM_OCPOLARITY(TIM_OCInitStruct->OCPolarity));

  /* Disable the Channel 1: Reset the CC1E Bit */
  CLEAR_BIT(TIMx->CCER, TIM_CCER_CC1E);
 8001a92:	687b      	ldr	r3, [r7, #4]
 8001a94:	6a1b      	ldr	r3, [r3, #32]
 8001a96:	f023 0201 	bic.w	r2, r3, #1
 8001a9a:	687b      	ldr	r3, [r7, #4]
 8001a9c:	621a      	str	r2, [r3, #32]

  /* Get the TIMx CCER register value */
  tmpccer = LL_TIM_ReadReg(TIMx, CCER);
 8001a9e:	687b      	ldr	r3, [r7, #4]
 8001aa0:	6a1b      	ldr	r3, [r3, #32]
 8001aa2:	617b      	str	r3, [r7, #20]

  /* Get the TIMx CR2 register value */
  tmpcr2 = LL_TIM_ReadReg(TIMx, CR2);
 8001aa4:	687b      	ldr	r3, [r7, #4]
 8001aa6:	685b      	ldr	r3, [r3, #4]
 8001aa8:	613b      	str	r3, [r7, #16]

  /* Get the TIMx CCMR1 register value */
  tmpccmr1 = LL_TIM_ReadReg(TIMx, CCMR1);
 8001aaa:	687b      	ldr	r3, [r7, #4]
 8001aac:	699b      	ldr	r3, [r3, #24]
 8001aae:	60fb      	str	r3, [r7, #12]

  /* Reset Capture/Compare selection Bits */
  CLEAR_BIT(tmpccmr1, TIM_CCMR1_CC1S);
 8001ab0:	68fb      	ldr	r3, [r7, #12]
 8001ab2:	f023 0303 	bic.w	r3, r3, #3
 8001ab6:	60fb      	str	r3, [r7, #12]

  /* Set the Output Compare Mode */
  MODIFY_REG(tmpccmr1, TIM_CCMR1_OC1M, TIM_OCInitStruct->OCMode);
 8001ab8:	68fb      	ldr	r3, [r7, #12]
 8001aba:	f023 0270 	bic.w	r2, r3, #112	@ 0x70
 8001abe:	683b      	ldr	r3, [r7, #0]
 8001ac0:	681b      	ldr	r3, [r3, #0]
 8001ac2:	4313      	orrs	r3, r2
 8001ac4:	60fb      	str	r3, [r7, #12]

  /* Set the Output Compare Polarity */
  MODIFY_REG(tmpccer, TIM_CCER_CC1P, TIM_OCInitStruct->OCPolarity);
 8001ac6:	697b      	ldr	r3, [r7, #20]
 8001ac8:	f023 0202 	bic.w	r2, r3, #2
 8001acc:	683b      	ldr	r3, [r7, #0]
 8001ace:	691b      	ldr	r3, [r3, #16]
 8001ad0:	4313      	orrs	r3, r2
 8001ad2:	617b      	str	r3, [r7, #20]

  /* Set the Output State */
  MODIFY_REG(tmpccer, TIM_CCER_CC1E, TIM_OCInitStruct->OCState);
 8001ad4:	697b      	ldr	r3, [r7, #20]
 8001ad6:	f023 0201 	bic.w	r2, r3, #1
 8001ada:	683b      	ldr	r3, [r7, #0]
 8001adc:	685b      	ldr	r3, [r3, #4]
 8001ade:	4313      	orrs	r3, r2
 8001ae0:	617b      	str	r3, [r7, #20]

  if (IS_TIM_BREAK_INSTANCE(TIMx))
 8001ae2:	687b      	ldr	r3, [r7, #4]
 8001ae4:	4a1a      	ldr	r2, [pc, #104]	@ (8001b50 <OC1Config+0xc8>)
 8001ae6:	4293      	cmp	r3, r2
 8001ae8:	d11e      	bne.n	8001b28 <OC1Config+0xa0>
    assert_param(IS_LL_TIM_OCSTATE(TIM_OCInitStruct->OCNState));
    assert_param(IS_LL_TIM_OCPOLARITY(TIM_OCInitStruct->OCNPolarity));
    assert_param(IS_LL_TIM_OCIDLESTATE(TIM_OCInitStruct->OCNIdleState));

    /* Set the complementary output Polarity */
    MODIFY_REG(tmpccer, TIM_CCER_CC1NP, TIM_OCInitStruct->OCNPolarity << 2U);
 8001aea:	697b      	ldr	r3, [r7, #20]
 8001aec:	f023 0208 	bic.w	r2, r3, #8
 8001af0:	683b      	ldr	r3, [r7, #0]
 8001af2:	695b      	ldr	r3, [r3, #20]
 8001af4:	009b      	lsls	r3, r3, #2
 8001af6:	4313      	orrs	r3, r2
 8001af8:	617b      	str	r3, [r7, #20]

    /* Set the complementary output State */
    MODIFY_REG(tmpccer, TIM_CCER_CC1NE, TIM_OCInitStruct->OCNState << 2U);
 8001afa:	697b      	ldr	r3, [r7, #20]
 8001afc:	f023 0204 	bic.w	r2, r3, #4
 8001b00:	683b      	ldr	r3, [r7, #0]
 8001b02:	689b      	ldr	r3, [r3, #8]
 8001b04:	009b      	lsls	r3, r3, #2
 8001b06:	4313      	orrs	r3, r2
 8001b08:	617b      	str	r3, [r7, #20]

    /* Set the Output Idle state */
    MODIFY_REG(tmpcr2, TIM_CR2_OIS1, TIM_OCInitStruct->OCIdleState);
 8001b0a:	693b      	ldr	r3, [r7, #16]
 8001b0c:	f423 7280 	bic.w	r2, r3, #256	@ 0x100
 8001b10:	683b      	ldr	r3, [r7, #0]
 8001b12:	699b      	ldr	r3, [r3, #24]
 8001b14:	4313      	orrs	r3, r2
 8001b16:	613b      	str	r3, [r7, #16]

    /* Set the complementary output Idle state */
    MODIFY_REG(tmpcr2, TIM_CR2_OIS1N, TIM_OCInitStruct->OCNIdleState << 1U);
 8001b18:	693b      	ldr	r3, [r7, #16]
 8001b1a:	f423 7200 	bic.w	r2, r3, #512	@ 0x200
 8001b1e:	683b      	ldr	r3, [r7, #0]
 8001b20:	69db      	ldr	r3, [r3, #28]
 8001b22:	005b      	lsls	r3, r3, #1
 8001b24:	4313      	orrs	r3, r2
 8001b26:	613b      	str	r3, [r7, #16]
  }

  /* Write to TIMx CR2 */
  LL_TIM_WriteReg(TIMx, CR2, tmpcr2);
 8001b28:	687b      	ldr	r3, [r7, #4]
 8001b2a:	693a      	ldr	r2, [r7, #16]
 8001b2c:	605a      	str	r2, [r3, #4]

  /* Write to TIMx CCMR1 */
  LL_TIM_WriteReg(TIMx, CCMR1, tmpccmr1);
 8001b2e:	687b      	ldr	r3, [r7, #4]
 8001b30:	68fa      	ldr	r2, [r7, #12]
 8001b32:	619a      	str	r2, [r3, #24]

  /* Set the Capture Compare Register value */
  LL_TIM_OC_SetCompareCH1(TIMx, TIM_OCInitStruct->CompareValue);
 8001b34:	683b      	ldr	r3, [r7, #0]
 8001b36:	68db      	ldr	r3, [r3, #12]
 8001b38:	4619      	mov	r1, r3
 8001b3a:	6878      	ldr	r0, [r7, #4]
 8001b3c:	f7ff fea0 	bl	8001880 <LL_TIM_OC_SetCompareCH1>

  /* Write to TIMx CCER */
  LL_TIM_WriteReg(TIMx, CCER, tmpccer);
 8001b40:	687b      	ldr	r3, [r7, #4]
 8001b42:	697a      	ldr	r2, [r7, #20]
 8001b44:	621a      	str	r2, [r3, #32]

  return SUCCESS;
 8001b46:	2300      	movs	r3, #0
}
 8001b48:	4618      	mov	r0, r3
 8001b4a:	3718      	adds	r7, #24
 8001b4c:	46bd      	mov	sp, r7
 8001b4e:	bd80      	pop	{r7, pc}
 8001b50:	40010000 	.word	0x40010000

08001b54 <OC2Config>:
  * @retval An ErrorStatus enumeration value:
  *          - SUCCESS: TIMx registers are de-initialized
  *          - ERROR: not applicable
  */
static ErrorStatus OC2Config(TIM_TypeDef *TIMx, const LL_TIM_OC_InitTypeDef *TIM_OCInitStruct)
{
 8001b54:	b580      	push	{r7, lr}
 8001b56:	b086      	sub	sp, #24
 8001b58:	af00      	add	r7, sp, #0
 8001b5a:	6078      	str	r0, [r7, #4]
 8001b5c:	6039      	str	r1, [r7, #0]
  assert_param(IS_LL_TIM_OCMODE(TIM_OCInitStruct->OCMode));
  assert_param(IS_LL_TIM_OCSTATE(TIM_OCInitStruct->OCState));
  assert_param(IS_LL_TIM_OCPOLARITY(TIM_OCInitStruct->OCPolarity));

  /* Disable the Channel 2: Reset the CC2E Bit */
  CLEAR_BIT(TIMx->CCER, TIM_CCER_CC2E);
 8001b5e:	687b      	ldr	r3, [r7, #4]
 8001b60:	6a1b      	ldr	r3, [r3, #32]
 8001b62:	f023 0210 	bic.w	r2, r3, #16
 8001b66:	687b      	ldr	r3, [r7, #4]
 8001b68:	621a      	str	r2, [r3, #32]

  /* Get the TIMx CCER register value */
  tmpccer =  LL_TIM_ReadReg(TIMx, CCER);
 8001b6a:	687b      	ldr	r3, [r7, #4]
 8001b6c:	6a1b      	ldr	r3, [r3, #32]
 8001b6e:	617b      	str	r3, [r7, #20]

  /* Get the TIMx CR2 register value */
  tmpcr2 = LL_TIM_ReadReg(TIMx, CR2);
 8001b70:	687b      	ldr	r3, [r7, #4]
 8001b72:	685b      	ldr	r3, [r3, #4]
 8001b74:	613b      	str	r3, [r7, #16]

  /* Get the TIMx CCMR1 register value */
  tmpccmr1 = LL_TIM_ReadReg(TIMx, CCMR1);
 8001b76:	687b      	ldr	r3, [r7, #4]
 8001b78:	699b      	ldr	r3, [r3, #24]
 8001b7a:	60fb      	str	r3, [r7, #12]

  /* Reset Capture/Compare selection Bits */
  CLEAR_BIT(tmpccmr1, TIM_CCMR1_CC2S);
 8001b7c:	68fb      	ldr	r3, [r7, #12]
 8001b7e:	f423 7340 	bic.w	r3, r3, #768	@ 0x300
 8001b82:	60fb      	str	r3, [r7, #12]

  /* Select the Output Compare Mode */
  MODIFY_REG(tmpccmr1, TIM_CCMR1_OC2M, TIM_OCInitStruct->OCMode << 8U);
 8001b84:	68fb      	ldr	r3, [r7, #12]
 8001b86:	f423 42e0 	bic.w	r2, r3, #28672	@ 0x7000
 8001b8a:	683b      	ldr	r3, [r7, #0]
 8001b8c:	681b      	ldr	r3, [r3, #0]
 8001b8e:	021b      	lsls	r3, r3, #8
 8001b90:	4313      	orrs	r3, r2
 8001b92:	60fb      	str	r3, [r7, #12]

  /* Set the Output Compare Polarity */
  MODIFY_REG(tmpccer, TIM_CCER_CC2P, TIM_OCInitStruct->OCPolarity << 4U);
 8001b94:	697b      	ldr	r3, [r7, #20]
 8001b96:	f023 0220 	bic.w	r2, r3, #32
 8001b9a:	683b      	ldr	r3, [r7, #0]
 8001b9c:	691b      	ldr	r3, [r3, #16]
 8001b9e:	011b      	lsls	r3, r3, #4
 8001ba0:	4313      	orrs	r3, r2
 8001ba2:	617b      	str	r3, [r7, #20]

  /* Set the Output State */
  MODIFY_REG(tmpccer, TIM_CCER_CC2E, TIM_OCInitStruct->OCState << 4U);
 8001ba4:	697b      	ldr	r3, [r7, #20]
 8001ba6:	f023 0210 	bic.w	r2, r3, #16
 8001baa:	683b      	ldr	r3, [r7, #0]
 8001bac:	685b      	ldr	r3, [r3, #4]
 8001bae:	011b      	lsls	r3, r3, #4
 8001bb0:	4313      	orrs	r3, r2
 8001bb2:	617b      	str	r3, [r7, #20]

  if (IS_TIM_BREAK_INSTANCE(TIMx))
 8001bb4:	687b      	ldr	r3, [r7, #4]
 8001bb6:	4a1b      	ldr	r2, [pc, #108]	@ (8001c24 <OC2Config+0xd0>)
 8001bb8:	4293      	cmp	r3, r2
 8001bba:	d11f      	bne.n	8001bfc <OC2Config+0xa8>
    assert_param(IS_LL_TIM_OCSTATE(TIM_OCInitStruct->OCNState));
    assert_param(IS_LL_TIM_OCPOLARITY(TIM_OCInitStruct->OCNPolarity));
    assert_param(IS_LL_TIM_OCIDLESTATE(TIM_OCInitStruct->OCNIdleState));

    /* Set the complementary output Polarity */
    MODIFY_REG(tmpccer, TIM_CCER_CC2NP, TIM_OCInitStruct->OCNPolarity << 6U);
 8001bbc:	697b      	ldr	r3, [r7, #20]
 8001bbe:	f023 0280 	bic.w	r2, r3, #128	@ 0x80
 8001bc2:	683b      	ldr	r3, [r7, #0]
 8001bc4:	695b      	ldr	r3, [r3, #20]
 8001bc6:	019b      	lsls	r3, r3, #6
 8001bc8:	4313      	orrs	r3, r2
 8001bca:	617b      	str	r3, [r7, #20]

    /* Set the complementary output State */
    MODIFY_REG(tmpccer, TIM_CCER_CC2NE, TIM_OCInitStruct->OCNState << 6U);
 8001bcc:	697b      	ldr	r3, [r7, #20]
 8001bce:	f023 0240 	bic.w	r2, r3, #64	@ 0x40
 8001bd2:	683b      	ldr	r3, [r7, #0]
 8001bd4:	689b      	ldr	r3, [r3, #8]
 8001bd6:	019b      	lsls	r3, r3, #6
 8001bd8:	4313      	orrs	r3, r2
 8001bda:	617b      	str	r3, [r7, #20]

    /* Set the Output Idle state */
    MODIFY_REG(tmpcr2, TIM_CR2_OIS2, TIM_OCInitStruct->OCIdleState << 2U);
 8001bdc:	693b      	ldr	r3, [r7, #16]
 8001bde:	f423 6280 	bic.w	r2, r3, #1024	@ 0x400
 8001be2:	683b      	ldr	r3, [r7, #0]
 8001be4:	699b      	ldr	r3, [r3, #24]
 8001be6:	009b      	lsls	r3, r3, #2
 8001be8:	4313      	orrs	r3, r2
 8001bea:	613b      	str	r3, [r7, #16]

    /* Set the complementary output Idle state */
    MODIFY_REG(tmpcr2, TIM_CR2_OIS2N, TIM_OCInitStruct->OCNIdleState << 3U);
 8001bec:	693b      	ldr	r3, [r7, #16]
 8001bee:	f423 6200 	bic.w	r2, r3, #2048	@ 0x800
 8001bf2:	683b      	ldr	r3, [r7, #0]
 8001bf4:	69db      	ldr	r3, [r3, #28]
 8001bf6:	00db      	lsls	r3, r3, #3
 8001bf8:	4313      	orrs	r3, r2
 8001bfa:	613b      	str	r3, [r7, #16]
  }

  /* Write to TIMx CR2 */
  LL_TIM_WriteReg(TIMx, CR2, tmpcr2);
 8001bfc:	687b      	ldr	r3, [r7, #4]
 8001bfe:	693a      	ldr	r2, [r7, #16]
 8001c00:	605a      	str	r2, [r3, #4]

  /* Write to TIMx CCMR1 */
  LL_TIM_WriteReg(TIMx, CCMR1, tmpccmr1);
 8001c02:	687b      	ldr	r3, [r7, #4]
 8001c04:	68fa      	ldr	r2, [r7, #12]
 8001c06:	619a      	str	r2, [r3, #24]

  /* Set the Capture Compare Register value */
  LL_TIM_OC_SetCompareCH2(TIMx, TIM_OCInitStruct->CompareValue);
 8001c08:	683b      	ldr	r3, [r7, #0]
 8001c0a:	68db      	ldr	r3, [r3, #12]
 8001c0c:	4619      	mov	r1, r3
 8001c0e:	6878      	ldr	r0, [r7, #4]
 8001c10:	f7ff fe44 	bl	800189c <LL_TIM_OC_SetCompareCH2>

  /* Write to TIMx CCER */
  LL_TIM_WriteReg(TIMx, CCER, tmpccer);
 8001c14:	687b      	ldr	r3, [r7, #4]
 8001c16:	697a      	ldr	r2, [r7, #20]
 8001c18:	621a      	str	r2, [r3, #32]

  return SUCCESS;
 8001c1a:	2300      	movs	r3, #0
}
 8001c1c:	4618      	mov	r0, r3
 8001c1e:	3718      	adds	r7, #24
 8001c20:	46bd      	mov	sp, r7
 8001c22:	bd80      	pop	{r7, pc}
 8001c24:	40010000 	.word	0x40010000

08001c28 <OC3Config>:
  * @retval An ErrorStatus enumeration value:
  *          - SUCCESS: TIMx registers are de-initialized
  *          - ERROR: not applicable
  */
static ErrorStatus OC3Config(TIM_TypeDef *TIMx, const LL_TIM_OC_InitTypeDef *TIM_OCInitStruct)
{
 8001c28:	b580      	push	{r7, lr}
 8001c2a:	b086      	sub	sp, #24
 8001c2c:	af00      	add	r7, sp, #0
 8001c2e:	6078      	str	r0, [r7, #4]
 8001c30:	6039      	str	r1, [r7, #0]
  assert_param(IS_LL_TIM_OCMODE(TIM_OCInitStruct->OCMode));
  assert_param(IS_LL_TIM_OCSTATE(TIM_OCInitStruct->OCState));
  assert_param(IS_LL_TIM_OCPOLARITY(TIM_OCInitStruct->OCPolarity));

  /* Disable the Channel 3: Reset the CC3E Bit */
  CLEAR_BIT(TIMx->CCER, TIM_CCER_CC3E);
 8001c32:	687b      	ldr	r3, [r7, #4]
 8001c34:	6a1b      	ldr	r3, [r3, #32]
 8001c36:	f423 7280 	bic.w	r2, r3, #256	@ 0x100
 8001c3a:	687b      	ldr	r3, [r7, #4]
 8001c3c:	621a      	str	r2, [r3, #32]

  /* Get the TIMx CCER register value */
  tmpccer =  LL_TIM_ReadReg(TIMx, CCER);
 8001c3e:	687b      	ldr	r3, [r7, #4]
 8001c40:	6a1b      	ldr	r3, [r3, #32]
 8001c42:	617b      	str	r3, [r7, #20]

  /* Get the TIMx CR2 register value */
  tmpcr2 = LL_TIM_ReadReg(TIMx, CR2);
 8001c44:	687b      	ldr	r3, [r7, #4]
 8001c46:	685b      	ldr	r3, [r3, #4]
 8001c48:	613b      	str	r3, [r7, #16]

  /* Get the TIMx CCMR2 register value */
  tmpccmr2 = LL_TIM_ReadReg(TIMx, CCMR2);
 8001c4a:	687b      	ldr	r3, [r7, #4]
 8001c4c:	69db      	ldr	r3, [r3, #28]
 8001c4e:	60fb      	str	r3, [r7, #12]

  /* Reset Capture/Compare selection Bits */
  CLEAR_BIT(tmpccmr2, TIM_CCMR2_CC3S);
 8001c50:	68fb      	ldr	r3, [r7, #12]
 8001c52:	f023 0303 	bic.w	r3, r3, #3
 8001c56:	60fb      	str	r3, [r7, #12]

  /* Select the Output Compare Mode */
  MODIFY_REG(tmpccmr2, TIM_CCMR2_OC3M, TIM_OCInitStruct->OCMode);
 8001c58:	68fb      	ldr	r3, [r7, #12]
 8001c5a:	f023 0270 	bic.w	r2, r3, #112	@ 0x70
 8001c5e:	683b      	ldr	r3, [r7, #0]
 8001c60:	681b      	ldr	r3, [r3, #0]
 8001c62:	4313      	orrs	r3, r2
 8001c64:	60fb      	str	r3, [r7, #12]

  /* Set the Output Compare Polarity */
  MODIFY_REG(tmpccer, TIM_CCER_CC3P, TIM_OCInitStruct->OCPolarity << 8U);
 8001c66:	697b      	ldr	r3, [r7, #20]
 8001c68:	f423 7200 	bic.w	r2, r3, #512	@ 0x200
 8001c6c:	683b      	ldr	r3, [r7, #0]
 8001c6e:	691b      	ldr	r3, [r3, #16]
 8001c70:	021b      	lsls	r3, r3, #8
 8001c72:	4313      	orrs	r3, r2
 8001c74:	617b      	str	r3, [r7, #20]

  /* Set the Output State */
  MODIFY_REG(tmpccer, TIM_CCER_CC3E, TIM_OCInitStruct->OCState << 8U);
 8001c76:	697b      	ldr	r3, [r7, #20]
 8001c78:	f423 7280 	bic.w	r2, r3, #256	@ 0x100
 8001c7c:	683b      	ldr	r3, [r7, #0]
 8001c7e:	685b      	ldr	r3, [r3, #4]
 8001c80:	021b      	lsls	r3, r3, #8
 8001c82:	4313      	orrs	r3, r2
 8001c84:	617b      	str	r3, [r7, #20]

  if (IS_TIM_BREAK_INSTANCE(TIMx))
 8001c86:	687b      	ldr	r3, [r7, #4]
 8001c88:	4a1b      	ldr	r2, [pc, #108]	@ (8001cf8 <OC3Config+0xd0>)
 8001c8a:	4293      	cmp	r3, r2
 8001c8c:	d11f      	bne.n	8001cce <OC3Config+0xa6>
    assert_param(IS_LL_TIM_OCSTATE(TIM_OCInitStruct->OCNState));
    assert_param(IS_LL_TIM_OCPOLARITY(TIM_OCInitStruct->OCNPolarity));
    assert_param(IS_LL_TIM_OCIDLESTATE(TIM_OCInitStruct->OCNIdleState));

    /* Set the complementary output Polarity */
    MODIFY_REG(tmpccer, TIM_CCER_CC3NP, TIM_OCInitStruct->OCNPolarity << 10U);
 8001c8e:	697b      	ldr	r3, [r7, #20]
 8001c90:	f423 6200 	bic.w	r2, r3, #2048	@ 0x800
 8001c94:	683b      	ldr	r3, [r7, #0]
 8001c96:	695b      	ldr	r3, [r3, #20]
 8001c98:	029b      	lsls	r3, r3, #10
 8001c9a:	4313      	orrs	r3, r2
 8001c9c:	617b      	str	r3, [r7, #20]

    /* Set the complementary output State */
    MODIFY_REG(tmpccer, TIM_CCER_CC3NE, TIM_OCInitStruct->OCNState << 10U);
 8001c9e:	697b      	ldr	r3, [r7, #20]
 8001ca0:	f423 6280 	bic.w	r2, r3, #1024	@ 0x400
 8001ca4:	683b      	ldr	r3, [r7, #0]
 8001ca6:	689b      	ldr	r3, [r3, #8]
 8001ca8:	029b      	lsls	r3, r3, #10
 8001caa:	4313      	orrs	r3, r2
 8001cac:	617b      	str	r3, [r7, #20]

    /* Set the Output Idle state */
    MODIFY_REG(tmpcr2, TIM_CR2_OIS3, TIM_OCInitStruct->OCIdleState << 4U);
 8001cae:	693b      	ldr	r3, [r7, #16]
 8001cb0:	f423 5280 	bic.w	r2, r3, #4096	@ 0x1000
 8001cb4:	683b      	ldr	r3, [r7, #0]
 8001cb6:	699b      	ldr	r3, [r3, #24]
 8001cb8:	011b      	lsls	r3, r3, #4
 8001cba:	4313      	orrs	r3, r2
 8001cbc:	613b      	str	r3, [r7, #16]

    /* Set the complementary output Idle state */
    MODIFY_REG(tmpcr2, TIM_CR2_OIS3N, TIM_OCInitStruct->OCNIdleState << 5U);
 8001cbe:	693b      	ldr	r3, [r7, #16]
 8001cc0:	f423 5200 	bic.w	r2, r3, #8192	@ 0x2000
 8001cc4:	683b      	ldr	r3, [r7, #0]
 8001cc6:	69db      	ldr	r3, [r3, #28]
 8001cc8:	015b      	lsls	r3, r3, #5
 8001cca:	4313      	orrs	r3, r2
 8001ccc:	613b      	str	r3, [r7, #16]
  }

  /* Write to TIMx CR2 */
  LL_TIM_WriteReg(TIMx, CR2, tmpcr2);
 8001cce:	687b      	ldr	r3, [r7, #4]
 8001cd0:	693a      	ldr	r2, [r7, #16]
 8001cd2:	605a      	str	r2, [r3, #4]

  /* Write to TIMx CCMR2 */
  LL_TIM_WriteReg(TIMx, CCMR2, tmpccmr2);
 8001cd4:	687b      	ldr	r3, [r7, #4]
 8001cd6:	68fa      	ldr	r2, [r7, #12]
 8001cd8:	61da      	str	r2, [r3, #28]

  /* Set the Capture Compare Register value */
  LL_TIM_OC_SetCompareCH3(TIMx, TIM_OCInitStruct->CompareValue);
 8001cda:	683b      	ldr	r3, [r7, #0]
 8001cdc:	68db      	ldr	r3, [r3, #12]
 8001cde:	4619      	mov	r1, r3
 8001ce0:	6878      	ldr	r0, [r7, #4]
 8001ce2:	f7ff fde9 	bl	80018b8 <LL_TIM_OC_SetCompareCH3>

  /* Write to TIMx CCER */
  LL_TIM_WriteReg(TIMx, CCER, tmpccer);
 8001ce6:	687b      	ldr	r3, [r7, #4]
 8001ce8:	697a      	ldr	r2, [r7, #20]
 8001cea:	621a      	str	r2, [r3, #32]

  return SUCCESS;
 8001cec:	2300      	movs	r3, #0
}
 8001cee:	4618      	mov	r0, r3
 8001cf0:	3718      	adds	r7, #24
 8001cf2:	46bd      	mov	sp, r7
 8001cf4:	bd80      	pop	{r7, pc}
 8001cf6:	bf00      	nop
 8001cf8:	40010000 	.word	0x40010000

08001cfc <OC4Config>:
  * @retval An ErrorStatus enumeration value:
  *          - SUCCESS: TIMx registers are de-initialized
  *          - ERROR: not applicable
  */
static ErrorStatus OC4Config(TIM_TypeDef *TIMx, const LL_TIM_OC_InitTypeDef *TIM_OCInitStruct)
{
 8001cfc:	b580      	push	{r7, lr}
 8001cfe:	b086      	sub	sp, #24
 8001d00:	af00      	add	r7, sp, #0
 8001d02:	6078      	str	r0, [r7, #4]
 8001d04:	6039      	str	r1, [r7, #0]
  assert_param(IS_LL_TIM_OCMODE(TIM_OCInitStruct->OCMode));
  assert_param(IS_LL_TIM_OCSTATE(TIM_OCInitStruct->OCState));
  assert_param(IS_LL_TIM_OCPOLARITY(TIM_OCInitStruct->OCPolarity));

  /* Disable the Channel 4: Reset the CC4E Bit */
  CLEAR_BIT(TIMx->CCER, TIM_CCER_CC4E);
 8001d06:	687b      	ldr	r3, [r7, #4]
 8001d08:	6a1b      	ldr	r3, [r3, #32]
 8001d0a:	f423 5280 	bic.w	r2, r3, #4096	@ 0x1000
 8001d0e:	687b      	ldr	r3, [r7, #4]
 8001d10:	621a      	str	r2, [r3, #32]

  /* Get the TIMx CCER register value */
  tmpccer = LL_TIM_ReadReg(TIMx, CCER);
 8001d12:	687b      	ldr	r3, [r7, #4]
 8001d14:	6a1b      	ldr	r3, [r3, #32]
 8001d16:	613b      	str	r3, [r7, #16]

  /* Get the TIMx CR2 register value */
  tmpcr2 =  LL_TIM_ReadReg(TIMx, CR2);
 8001d18:	687b      	ldr	r3, [r7, #4]
 8001d1a:	685b      	ldr	r3, [r3, #4]
 8001d1c:	617b      	str	r3, [r7, #20]

  /* Get the TIMx CCMR2 register value */
  tmpccmr2 = LL_TIM_ReadReg(TIMx, CCMR2);
 8001d1e:	687b      	ldr	r3, [r7, #4]
 8001d20:	69db      	ldr	r3, [r3, #28]
 8001d22:	60fb      	str	r3, [r7, #12]

  /* Reset Capture/Compare selection Bits */
  CLEAR_BIT(tmpccmr2, TIM_CCMR2_CC4S);
 8001d24:	68fb      	ldr	r3, [r7, #12]
 8001d26:	f423 7340 	bic.w	r3, r3, #768	@ 0x300
 8001d2a:	60fb      	str	r3, [r7, #12]

  /* Select the Output Compare Mode */
  MODIFY_REG(tmpccmr2, TIM_CCMR2_OC4M, TIM_OCInitStruct->OCMode << 8U);
 8001d2c:	68fb      	ldr	r3, [r7, #12]
 8001d2e:	f423 42e0 	bic.w	r2, r3, #28672	@ 0x7000
 8001d32:	683b      	ldr	r3, [r7, #0]
 8001d34:	681b      	ldr	r3, [r3, #0]
 8001d36:	021b      	lsls	r3, r3, #8
 8001d38:	4313      	orrs	r3, r2
 8001d3a:	60fb      	str	r3, [r7, #12]

  /* Set the Output Compare Polarity */
  MODIFY_REG(tmpccer, TIM_CCER_CC4P, TIM_OCInitStruct->OCPolarity << 12U);
 8001d3c:	693b      	ldr	r3, [r7, #16]
 8001d3e:	f423 5200 	bic.w	r2, r3, #8192	@ 0x2000
 8001d42:	683b      	ldr	r3, [r7, #0]
 8001d44:	691b      	ldr	r3, [r3, #16]
 8001d46:	031b      	lsls	r3, r3, #12
 8001d48:	4313      	orrs	r3, r2
 8001d4a:	613b      	str	r3, [r7, #16]

  /* Set the Output State */
  MODIFY_REG(tmpccer, TIM_CCER_CC4E, TIM_OCInitStruct->OCState << 12U);
 8001d4c:	693b      	ldr	r3, [r7, #16]
 8001d4e:	f423 5280 	bic.w	r2, r3, #4096	@ 0x1000
 8001d52:	683b      	ldr	r3, [r7, #0]
 8001d54:	685b      	ldr	r3, [r3, #4]
 8001d56:	031b      	lsls	r3, r3, #12
 8001d58:	4313      	orrs	r3, r2
 8001d5a:	613b      	str	r3, [r7, #16]

  if (IS_TIM_BREAK_INSTANCE(TIMx))
 8001d5c:	687b      	ldr	r3, [r7, #4]
 8001d5e:	4a0f      	ldr	r2, [pc, #60]	@ (8001d9c <OC4Config+0xa0>)
 8001d60:	4293      	cmp	r3, r2
 8001d62:	d107      	bne.n	8001d74 <OC4Config+0x78>
  {
    assert_param(IS_LL_TIM_OCIDLESTATE(TIM_OCInitStruct->OCIdleState));

    /* Set the Output Idle state */
    MODIFY_REG(tmpcr2, TIM_CR2_OIS4, TIM_OCInitStruct->OCIdleState << 6U);
 8001d64:	697b      	ldr	r3, [r7, #20]
 8001d66:	f423 4280 	bic.w	r2, r3, #16384	@ 0x4000
 8001d6a:	683b      	ldr	r3, [r7, #0]
 8001d6c:	699b      	ldr	r3, [r3, #24]
 8001d6e:	019b      	lsls	r3, r3, #6
 8001d70:	4313      	orrs	r3, r2
 8001d72:	617b      	str	r3, [r7, #20]
  }

  /* Write to TIMx CR2 */
  LL_TIM_WriteReg(TIMx, CR2, tmpcr2);
 8001d74:	687b      	ldr	r3, [r7, #4]
 8001d76:	697a      	ldr	r2, [r7, #20]
 8001d78:	605a      	str	r2, [r3, #4]

  /* Write to TIMx CCMR2 */
  LL_TIM_WriteReg(TIMx, CCMR2, tmpccmr2);
 8001d7a:	687b      	ldr	r3, [r7, #4]
 8001d7c:	68fa      	ldr	r2, [r7, #12]
 8001d7e:	61da      	str	r2, [r3, #28]

  /* Set the Capture Compare Register value */
  LL_TIM_OC_SetCompareCH4(TIMx, TIM_OCInitStruct->CompareValue);
 8001d80:	683b      	ldr	r3, [r7, #0]
 8001d82:	68db      	ldr	r3, [r3, #12]
 8001d84:	4619      	mov	r1, r3
 8001d86:	6878      	ldr	r0, [r7, #4]
 8001d88:	f7ff fda4 	bl	80018d4 <LL_TIM_OC_SetCompareCH4>

  /* Write to TIMx CCER */
  LL_TIM_WriteReg(TIMx, CCER, tmpccer);
 8001d8c:	687b      	ldr	r3, [r7, #4]
 8001d8e:	693a      	ldr	r2, [r7, #16]
 8001d90:	621a      	str	r2, [r3, #32]

  return SUCCESS;
 8001d92:	2300      	movs	r3, #0
}
 8001d94:	4618      	mov	r0, r3
 8001d96:	3718      	adds	r7, #24
 8001d98:	46bd      	mov	sp, r7
 8001d9a:	bd80      	pop	{r7, pc}
 8001d9c:	40010000 	.word	0x40010000

08001da0 <LL_USART_IsEnabled>:
{
 8001da0:	b480      	push	{r7}
 8001da2:	b083      	sub	sp, #12
 8001da4:	af00      	add	r7, sp, #0
 8001da6:	6078      	str	r0, [r7, #4]
  return (READ_BIT(USARTx->CR1, USART_CR1_UE) == (USART_CR1_UE));
 8001da8:	687b      	ldr	r3, [r7, #4]
 8001daa:	68db      	ldr	r3, [r3, #12]
 8001dac:	f403 5300 	and.w	r3, r3, #8192	@ 0x2000
 8001db0:	f5b3 5f00 	cmp.w	r3, #8192	@ 0x2000
 8001db4:	bf0c      	ite	eq
 8001db6:	2301      	moveq	r3, #1
 8001db8:	2300      	movne	r3, #0
 8001dba:	b2db      	uxtb	r3, r3
}
 8001dbc:	4618      	mov	r0, r3
 8001dbe:	370c      	adds	r7, #12
 8001dc0:	46bd      	mov	sp, r7
 8001dc2:	f85d 7b04 	ldr.w	r7, [sp], #4
 8001dc6:	4770      	bx	lr

08001dc8 <LL_USART_SetStopBitsLength>:
{
 8001dc8:	b480      	push	{r7}
 8001dca:	b083      	sub	sp, #12
 8001dcc:	af00      	add	r7, sp, #0
 8001dce:	6078      	str	r0, [r7, #4]
 8001dd0:	6039      	str	r1, [r7, #0]
  MODIFY_REG(USARTx->CR2, USART_CR2_STOP, StopBits);
 8001dd2:	687b      	ldr	r3, [r7, #4]
 8001dd4:	691b      	ldr	r3, [r3, #16]
 8001dd6:	f423 5240 	bic.w	r2, r3, #12288	@ 0x3000
 8001dda:	683b      	ldr	r3, [r7, #0]
 8001ddc:	431a      	orrs	r2, r3
 8001dde:	687b      	ldr	r3, [r7, #4]
 8001de0:	611a      	str	r2, [r3, #16]
}
 8001de2:	bf00      	nop
 8001de4:	370c      	adds	r7, #12
 8001de6:	46bd      	mov	sp, r7
 8001de8:	f85d 7b04 	ldr.w	r7, [sp], #4
 8001dec:	4770      	bx	lr

08001dee <LL_USART_SetHWFlowCtrl>:
{
 8001dee:	b480      	push	{r7}
 8001df0:	b083      	sub	sp, #12
 8001df2:	af00      	add	r7, sp, #0
 8001df4:	6078      	str	r0, [r7, #4]
 8001df6:	6039      	str	r1, [r7, #0]
  MODIFY_REG(USARTx->CR3, USART_CR3_RTSE | USART_CR3_CTSE, HardwareFlowControl);
 8001df8:	687b      	ldr	r3, [r7, #4]
 8001dfa:	695b      	ldr	r3, [r3, #20]
 8001dfc:	f423 7240 	bic.w	r2, r3, #768	@ 0x300
 8001e00:	683b      	ldr	r3, [r7, #0]
 8001e02:	431a      	orrs	r2, r3
 8001e04:	687b      	ldr	r3, [r7, #4]
 8001e06:	615a      	str	r2, [r3, #20]
}
 8001e08:	bf00      	nop
 8001e0a:	370c      	adds	r7, #12
 8001e0c:	46bd      	mov	sp, r7
 8001e0e:	f85d 7b04 	ldr.w	r7, [sp], #4
 8001e12:	4770      	bx	lr

08001e14 <LL_USART_SetBaudRate>:
{
 8001e14:	e92d 4fb0 	stmdb	sp!, {r4, r5, r7, r8, r9, sl, fp, lr}
 8001e18:	b0c0      	sub	sp, #256	@ 0x100
 8001e1a:	af00      	add	r7, sp, #0
 8001e1c:	f8c7 00fc 	str.w	r0, [r7, #252]	@ 0xfc
 8001e20:	f8c7 10f8 	str.w	r1, [r7, #248]	@ 0xf8
 8001e24:	f8c7 20f4 	str.w	r2, [r7, #244]	@ 0xf4
 8001e28:	f8c7 30f0 	str.w	r3, [r7, #240]	@ 0xf0
  if (OverSampling == LL_USART_OVERSAMPLING_8)
 8001e2c:	f8d7 30f4 	ldr.w	r3, [r7, #244]	@ 0xf4
 8001e30:	f5b3 4f00 	cmp.w	r3, #32768	@ 0x8000
 8001e34:	f040 810c 	bne.w	8002050 <LL_USART_SetBaudRate+0x23c>
    USARTx->BRR = (uint16_t)(__LL_USART_DIV_SAMPLING8(PeriphClk, BaudRate));
 8001e38:	f8d7 30f8 	ldr.w	r3, [r7, #248]	@ 0xf8
 8001e3c:	2200      	movs	r2, #0
 8001e3e:	f8c7 30e8 	str.w	r3, [r7, #232]	@ 0xe8
 8001e42:	f8c7 20ec 	str.w	r2, [r7, #236]	@ 0xec
 8001e46:	e9d7 453a 	ldrd	r4, r5, [r7, #232]	@ 0xe8
 8001e4a:	4622      	mov	r2, r4
 8001e4c:	462b      	mov	r3, r5
 8001e4e:	1891      	adds	r1, r2, r2
 8001e50:	6639      	str	r1, [r7, #96]	@ 0x60
 8001e52:	415b      	adcs	r3, r3
 8001e54:	667b      	str	r3, [r7, #100]	@ 0x64
 8001e56:	e9d7 2318 	ldrd	r2, r3, [r7, #96]	@ 0x60
 8001e5a:	4621      	mov	r1, r4
 8001e5c:	eb12 0801 	adds.w	r8, r2, r1
 8001e60:	4629      	mov	r1, r5
 8001e62:	eb43 0901 	adc.w	r9, r3, r1
 8001e66:	f04f 0200 	mov.w	r2, #0
 8001e6a:	f04f 0300 	mov.w	r3, #0
 8001e6e:	ea4f 03c9 	mov.w	r3, r9, lsl #3
 8001e72:	ea43 7358 	orr.w	r3, r3, r8, lsr #29
 8001e76:	ea4f 02c8 	mov.w	r2, r8, lsl #3
 8001e7a:	4690      	mov	r8, r2
 8001e7c:	4699      	mov	r9, r3
 8001e7e:	4623      	mov	r3, r4
 8001e80:	eb18 0303 	adds.w	r3, r8, r3
 8001e84:	f8c7 30e0 	str.w	r3, [r7, #224]	@ 0xe0
 8001e88:	462b      	mov	r3, r5
 8001e8a:	eb49 0303 	adc.w	r3, r9, r3
 8001e8e:	f8c7 30e4 	str.w	r3, [r7, #228]	@ 0xe4
 8001e92:	f8d7 30f0 	ldr.w	r3, [r7, #240]	@ 0xf0
 8001e96:	2200      	movs	r2, #0
 8001e98:	469a      	mov	sl, r3
 8001e9a:	4693      	mov	fp, r2
 8001e9c:	eb1a 030a 	adds.w	r3, sl, sl
 8001ea0:	65bb      	str	r3, [r7, #88]	@ 0x58
 8001ea2:	eb4b 030b 	adc.w	r3, fp, fp
 8001ea6:	65fb      	str	r3, [r7, #92]	@ 0x5c
 8001ea8:	e9d7 2316 	ldrd	r2, r3, [r7, #88]	@ 0x58
 8001eac:	e9d7 0138 	ldrd	r0, r1, [r7, #224]	@ 0xe0
 8001eb0:	f7fe f990 	bl	80001d4 <__aeabi_uldivmod>
 8001eb4:	4602      	mov	r2, r0
 8001eb6:	460b      	mov	r3, r1
 8001eb8:	4b64      	ldr	r3, [pc, #400]	@ (800204c <LL_USART_SetBaudRate+0x238>)
 8001eba:	fba3 2302 	umull	r2, r3, r3, r2
 8001ebe:	095b      	lsrs	r3, r3, #5
 8001ec0:	b29b      	uxth	r3, r3
 8001ec2:	011b      	lsls	r3, r3, #4
 8001ec4:	b29c      	uxth	r4, r3
 8001ec6:	f8d7 30f8 	ldr.w	r3, [r7, #248]	@ 0xf8
 8001eca:	2200      	movs	r2, #0
 8001ecc:	f8c7 30d8 	str.w	r3, [r7, #216]	@ 0xd8
 8001ed0:	f8c7 20dc 	str.w	r2, [r7, #220]	@ 0xdc
 8001ed4:	e9d7 8936 	ldrd	r8, r9, [r7, #216]	@ 0xd8
 8001ed8:	4642      	mov	r2, r8
 8001eda:	464b      	mov	r3, r9
 8001edc:	1891      	adds	r1, r2, r2
 8001ede:	6539      	str	r1, [r7, #80]	@ 0x50
 8001ee0:	415b      	adcs	r3, r3
 8001ee2:	657b      	str	r3, [r7, #84]	@ 0x54
 8001ee4:	e9d7 2314 	ldrd	r2, r3, [r7, #80]	@ 0x50
 8001ee8:	4641      	mov	r1, r8
 8001eea:	1851      	adds	r1, r2, r1
 8001eec:	64b9      	str	r1, [r7, #72]	@ 0x48
 8001eee:	4649      	mov	r1, r9
 8001ef0:	414b      	adcs	r3, r1
 8001ef2:	64fb      	str	r3, [r7, #76]	@ 0x4c
 8001ef4:	f04f 0200 	mov.w	r2, #0
 8001ef8:	f04f 0300 	mov.w	r3, #0
 8001efc:	e9d7 ab12 	ldrd	sl, fp, [r7, #72]	@ 0x48
 8001f00:	4659      	mov	r1, fp
 8001f02:	00cb      	lsls	r3, r1, #3
 8001f04:	4651      	mov	r1, sl
 8001f06:	ea43 7351 	orr.w	r3, r3, r1, lsr #29
 8001f0a:	4651      	mov	r1, sl
 8001f0c:	00ca      	lsls	r2, r1, #3
 8001f0e:	4610      	mov	r0, r2
 8001f10:	4619      	mov	r1, r3
 8001f12:	4603      	mov	r3, r0
 8001f14:	4642      	mov	r2, r8
 8001f16:	189b      	adds	r3, r3, r2
 8001f18:	f8c7 30d0 	str.w	r3, [r7, #208]	@ 0xd0
 8001f1c:	464b      	mov	r3, r9
 8001f1e:	460a      	mov	r2, r1
 8001f20:	eb42 0303 	adc.w	r3, r2, r3
 8001f24:	f8c7 30d4 	str.w	r3, [r7, #212]	@ 0xd4
 8001f28:	f8d7 30f0 	ldr.w	r3, [r7, #240]	@ 0xf0
 8001f2c:	2200      	movs	r2, #0
 8001f2e:	f8c7 30c8 	str.w	r3, [r7, #200]	@ 0xc8
 8001f32:	f8c7 20cc 	str.w	r2, [r7, #204]	@ 0xcc
 8001f36:	e9d7 1232 	ldrd	r1, r2, [r7, #200]	@ 0xc8
 8001f3a:	460b      	mov	r3, r1
 8001f3c:	18db      	adds	r3, r3, r3
 8001f3e:	643b      	str	r3, [r7, #64]	@ 0x40
 8001f40:	4613      	mov	r3, r2
 8001f42:	eb42 0303 	adc.w	r3, r2, r3
 8001f46:	647b      	str	r3, [r7, #68]	@ 0x44
 8001f48:	e9d7 2310 	ldrd	r2, r3, [r7, #64]	@ 0x40
 8001f4c:	e9d7 0134 	ldrd	r0, r1, [r7, #208]	@ 0xd0
 8001f50:	f7fe f940 	bl	80001d4 <__aeabi_uldivmod>
 8001f54:	4602      	mov	r2, r0
 8001f56:	460b      	mov	r3, r1
 8001f58:	4611      	mov	r1, r2
 8001f5a:	4b3c      	ldr	r3, [pc, #240]	@ (800204c <LL_USART_SetBaudRate+0x238>)
 8001f5c:	fba3 2301 	umull	r2, r3, r3, r1
 8001f60:	095b      	lsrs	r3, r3, #5
 8001f62:	2264      	movs	r2, #100	@ 0x64
 8001f64:	fb02 f303 	mul.w	r3, r2, r3
 8001f68:	1acb      	subs	r3, r1, r3
 8001f6a:	00db      	lsls	r3, r3, #3
 8001f6c:	f103 0232 	add.w	r2, r3, #50	@ 0x32
 8001f70:	4b36      	ldr	r3, [pc, #216]	@ (800204c <LL_USART_SetBaudRate+0x238>)
 8001f72:	fba3 2302 	umull	r2, r3, r3, r2
 8001f76:	095b      	lsrs	r3, r3, #5
 8001f78:	b29b      	uxth	r3, r3
 8001f7a:	005b      	lsls	r3, r3, #1
 8001f7c:	b29b      	uxth	r3, r3
 8001f7e:	f403 73f8 	and.w	r3, r3, #496	@ 0x1f0
 8001f82:	b29b      	uxth	r3, r3
 8001f84:	4423      	add	r3, r4
 8001f86:	b29c      	uxth	r4, r3
 8001f88:	f8d7 30f8 	ldr.w	r3, [r7, #248]	@ 0xf8
 8001f8c:	2200      	movs	r2, #0
 8001f8e:	f8c7 30c0 	str.w	r3, [r7, #192]	@ 0xc0
 8001f92:	f8c7 20c4 	str.w	r2, [r7, #196]	@ 0xc4
 8001f96:	e9d7 8930 	ldrd	r8, r9, [r7, #192]	@ 0xc0
 8001f9a:	4642      	mov	r2, r8
 8001f9c:	464b      	mov	r3, r9
 8001f9e:	1891      	adds	r1, r2, r2
 8001fa0:	63b9      	str	r1, [r7, #56]	@ 0x38
 8001fa2:	415b      	adcs	r3, r3
 8001fa4:	63fb      	str	r3, [r7, #60]	@ 0x3c
 8001fa6:	e9d7 230e 	ldrd	r2, r3, [r7, #56]	@ 0x38
 8001faa:	4641      	mov	r1, r8
 8001fac:	1851      	adds	r1, r2, r1
 8001fae:	6339      	str	r1, [r7, #48]	@ 0x30
 8001fb0:	4649      	mov	r1, r9
 8001fb2:	414b      	adcs	r3, r1
 8001fb4:	637b      	str	r3, [r7, #52]	@ 0x34
 8001fb6:	f04f 0200 	mov.w	r2, #0
 8001fba:	f04f 0300 	mov.w	r3, #0
 8001fbe:	e9d7 ab0c 	ldrd	sl, fp, [r7, #48]	@ 0x30
 8001fc2:	4659      	mov	r1, fp
 8001fc4:	00cb      	lsls	r3, r1, #3
 8001fc6:	4651      	mov	r1, sl
 8001fc8:	ea43 7351 	orr.w	r3, r3, r1, lsr #29
 8001fcc:	4651      	mov	r1, sl
 8001fce:	00ca      	lsls	r2, r1, #3
 8001fd0:	4610      	mov	r0, r2
 8001fd2:	4619      	mov	r1, r3
 8001fd4:	4603      	mov	r3, r0
 8001fd6:	4642      	mov	r2, r8
 8001fd8:	189b      	adds	r3, r3, r2
 8001fda:	f8c7 30b8 	str.w	r3, [r7, #184]	@ 0xb8
 8001fde:	464b      	mov	r3, r9
 8001fe0:	460a      	mov	r2, r1
 8001fe2:	eb42 0303 	adc.w	r3, r2, r3
 8001fe6:	f8c7 30bc 	str.w	r3, [r7, #188]	@ 0xbc
 8001fea:	f8d7 30f0 	ldr.w	r3, [r7, #240]	@ 0xf0
 8001fee:	2200      	movs	r2, #0
 8001ff0:	f8c7 30b0 	str.w	r3, [r7, #176]	@ 0xb0
 8001ff4:	f8c7 20b4 	str.w	r2, [r7, #180]	@ 0xb4
 8001ff8:	e9d7 122c 	ldrd	r1, r2, [r7, #176]	@ 0xb0
 8001ffc:	460b      	mov	r3, r1
 8001ffe:	18db      	adds	r3, r3, r3
 8002000:	62bb      	str	r3, [r7, #40]	@ 0x28
 8002002:	4613      	mov	r3, r2
 8002004:	eb42 0303 	adc.w	r3, r2, r3
 8002008:	62fb      	str	r3, [r7, #44]	@ 0x2c
 800200a:	e9d7 230a 	ldrd	r2, r3, [r7, #40]	@ 0x28
 800200e:	e9d7 012e 	ldrd	r0, r1, [r7, #184]	@ 0xb8
 8002012:	f7fe f8df 	bl	80001d4 <__aeabi_uldivmod>
 8002016:	4602      	mov	r2, r0
 8002018:	460b      	mov	r3, r1
 800201a:	4b0c      	ldr	r3, [pc, #48]	@ (800204c <LL_USART_SetBaudRate+0x238>)
 800201c:	fba3 1302 	umull	r1, r3, r3, r2
 8002020:	095b      	lsrs	r3, r3, #5
 8002022:	2164      	movs	r1, #100	@ 0x64
 8002024:	fb01 f303 	mul.w	r3, r1, r3
 8002028:	1ad3      	subs	r3, r2, r3
 800202a:	00db      	lsls	r3, r3, #3
 800202c:	3332      	adds	r3, #50	@ 0x32
 800202e:	4a07      	ldr	r2, [pc, #28]	@ (800204c <LL_USART_SetBaudRate+0x238>)
 8002030:	fba2 2303 	umull	r2, r3, r2, r3
 8002034:	095b      	lsrs	r3, r3, #5
 8002036:	b29b      	uxth	r3, r3
 8002038:	f003 0307 	and.w	r3, r3, #7
 800203c:	b29b      	uxth	r3, r3
 800203e:	4423      	add	r3, r4
 8002040:	b29b      	uxth	r3, r3
 8002042:	461a      	mov	r2, r3
 8002044:	f8d7 30fc 	ldr.w	r3, [r7, #252]	@ 0xfc
 8002048:	609a      	str	r2, [r3, #8]
}
 800204a:	e108      	b.n	800225e <LL_USART_SetBaudRate+0x44a>
 800204c:	51eb851f 	.word	0x51eb851f
    USARTx->BRR = (uint16_t)(__LL_USART_DIV_SAMPLING16(PeriphClk, BaudRate));
 8002050:	f8d7 30f8 	ldr.w	r3, [r7, #248]	@ 0xf8
 8002054:	2200      	movs	r2, #0
 8002056:	f8c7 30a8 	str.w	r3, [r7, #168]	@ 0xa8
 800205a:	f8c7 20ac 	str.w	r2, [r7, #172]	@ 0xac
 800205e:	e9d7 892a 	ldrd	r8, r9, [r7, #168]	@ 0xa8
 8002062:	4642      	mov	r2, r8
 8002064:	464b      	mov	r3, r9
 8002066:	1891      	adds	r1, r2, r2
 8002068:	6239      	str	r1, [r7, #32]
 800206a:	415b      	adcs	r3, r3
 800206c:	627b      	str	r3, [r7, #36]	@ 0x24
 800206e:	e9d7 2308 	ldrd	r2, r3, [r7, #32]
 8002072:	4641      	mov	r1, r8
 8002074:	1854      	adds	r4, r2, r1
 8002076:	4649      	mov	r1, r9
 8002078:	eb43 0501 	adc.w	r5, r3, r1
 800207c:	f04f 0200 	mov.w	r2, #0
 8002080:	f04f 0300 	mov.w	r3, #0
 8002084:	00eb      	lsls	r3, r5, #3
 8002086:	ea43 7354 	orr.w	r3, r3, r4, lsr #29
 800208a:	00e2      	lsls	r2, r4, #3
 800208c:	4614      	mov	r4, r2
 800208e:	461d      	mov	r5, r3
 8002090:	4643      	mov	r3, r8
 8002092:	18e3      	adds	r3, r4, r3
 8002094:	f8c7 30a0 	str.w	r3, [r7, #160]	@ 0xa0
 8002098:	464b      	mov	r3, r9
 800209a:	eb45 0303 	adc.w	r3, r5, r3
 800209e:	f8c7 30a4 	str.w	r3, [r7, #164]	@ 0xa4
 80020a2:	f8d7 30f0 	ldr.w	r3, [r7, #240]	@ 0xf0
 80020a6:	2200      	movs	r2, #0
 80020a8:	f8c7 3098 	str.w	r3, [r7, #152]	@ 0x98
 80020ac:	f8c7 209c 	str.w	r2, [r7, #156]	@ 0x9c
 80020b0:	f04f 0200 	mov.w	r2, #0
 80020b4:	f04f 0300 	mov.w	r3, #0
 80020b8:	e9d7 4526 	ldrd	r4, r5, [r7, #152]	@ 0x98
 80020bc:	4629      	mov	r1, r5
 80020be:	008b      	lsls	r3, r1, #2
 80020c0:	4621      	mov	r1, r4
 80020c2:	ea43 7391 	orr.w	r3, r3, r1, lsr #30
 80020c6:	4621      	mov	r1, r4
 80020c8:	008a      	lsls	r2, r1, #2
 80020ca:	e9d7 0128 	ldrd	r0, r1, [r7, #160]	@ 0xa0
 80020ce:	f7fe f881 	bl	80001d4 <__aeabi_uldivmod>
 80020d2:	4602      	mov	r2, r0
 80020d4:	460b      	mov	r3, r1
 80020d6:	4b65      	ldr	r3, [pc, #404]	@ (800226c <LL_USART_SetBaudRate+0x458>)
 80020d8:	fba3 2302 	umull	r2, r3, r3, r2
 80020dc:	095b      	lsrs	r3, r3, #5
 80020de:	b29b      	uxth	r3, r3
 80020e0:	011b      	lsls	r3, r3, #4
 80020e2:	b29c      	uxth	r4, r3
 80020e4:	f8d7 30f8 	ldr.w	r3, [r7, #248]	@ 0xf8
 80020e8:	2200      	movs	r2, #0
 80020ea:	f8c7 3090 	str.w	r3, [r7, #144]	@ 0x90
 80020ee:	f8c7 2094 	str.w	r2, [r7, #148]	@ 0x94
 80020f2:	e9d7 8924 	ldrd	r8, r9, [r7, #144]	@ 0x90
 80020f6:	4642      	mov	r2, r8
 80020f8:	464b      	mov	r3, r9
 80020fa:	1891      	adds	r1, r2, r2
 80020fc:	61b9      	str	r1, [r7, #24]
 80020fe:	415b      	adcs	r3, r3
 8002100:	61fb      	str	r3, [r7, #28]
 8002102:	e9d7 2306 	ldrd	r2, r3, [r7, #24]
 8002106:	4641      	mov	r1, r8
 8002108:	1851      	adds	r1, r2, r1
 800210a:	6139      	str	r1, [r7, #16]
 800210c:	4649      	mov	r1, r9
 800210e:	414b      	adcs	r3, r1
 8002110:	617b      	str	r3, [r7, #20]
 8002112:	f04f 0200 	mov.w	r2, #0
 8002116:	f04f 0300 	mov.w	r3, #0
 800211a:	e9d7 ab04 	ldrd	sl, fp, [r7, #16]
 800211e:	4659      	mov	r1, fp
 8002120:	00cb      	lsls	r3, r1, #3
 8002122:	4651      	mov	r1, sl
 8002124:	ea43 7351 	orr.w	r3, r3, r1, lsr #29
 8002128:	4651      	mov	r1, sl
 800212a:	00ca      	lsls	r2, r1, #3
 800212c:	4610      	mov	r0, r2
 800212e:	4619      	mov	r1, r3
 8002130:	4603      	mov	r3, r0
 8002132:	4642      	mov	r2, r8
 8002134:	189b      	adds	r3, r3, r2
 8002136:	f8c7 3088 	str.w	r3, [r7, #136]	@ 0x88
 800213a:	464b      	mov	r3, r9
 800213c:	460a      	mov	r2, r1
 800213e:	eb42 0303 	adc.w	r3, r2, r3
 8002142:	f8c7 308c 	str.w	r3, [r7, #140]	@ 0x8c
 8002146:	f8d7 30f0 	ldr.w	r3, [r7, #240]	@ 0xf0
 800214a:	2200      	movs	r2, #0
 800214c:	f8c7 3080 	str.w	r3, [r7, #128]	@ 0x80
 8002150:	f8c7 2084 	str.w	r2, [r7, #132]	@ 0x84
 8002154:	f04f 0200 	mov.w	r2, #0
 8002158:	f04f 0300 	mov.w	r3, #0
 800215c:	e9d7 8920 	ldrd	r8, r9, [r7, #128]	@ 0x80
 8002160:	4649      	mov	r1, r9
 8002162:	008b      	lsls	r3, r1, #2
 8002164:	4641      	mov	r1, r8
 8002166:	ea43 7391 	orr.w	r3, r3, r1, lsr #30
 800216a:	4641      	mov	r1, r8
 800216c:	008a      	lsls	r2, r1, #2
 800216e:	e9d7 0122 	ldrd	r0, r1, [r7, #136]	@ 0x88
 8002172:	f7fe f82f 	bl	80001d4 <__aeabi_uldivmod>
 8002176:	4602      	mov	r2, r0
 8002178:	460b      	mov	r3, r1
 800217a:	4611      	mov	r1, r2
 800217c:	4b3b      	ldr	r3, [pc, #236]	@ (800226c <LL_USART_SetBaudRate+0x458>)
 800217e:	fba3 2301 	umull	r2, r3, r3, r1
 8002182:	095b      	lsrs	r3, r3, #5
 8002184:	2264      	movs	r2, #100	@ 0x64
 8002186:	fb02 f303 	mul.w	r3, r2, r3
 800218a:	1acb      	subs	r3, r1, r3
 800218c:	011b      	lsls	r3, r3, #4
 800218e:	3332      	adds	r3, #50	@ 0x32
 8002190:	4a36      	ldr	r2, [pc, #216]	@ (800226c <LL_USART_SetBaudRate+0x458>)
 8002192:	fba2 2303 	umull	r2, r3, r2, r3
 8002196:	095b      	lsrs	r3, r3, #5
 8002198:	b29b      	uxth	r3, r3
 800219a:	f003 03f0 	and.w	r3, r3, #240	@ 0xf0
 800219e:	b29b      	uxth	r3, r3
 80021a0:	4423      	add	r3, r4
 80021a2:	b29c      	uxth	r4, r3
 80021a4:	f8d7 30f8 	ldr.w	r3, [r7, #248]	@ 0xf8
 80021a8:	2200      	movs	r2, #0
 80021aa:	67bb      	str	r3, [r7, #120]	@ 0x78
 80021ac:	67fa      	str	r2, [r7, #124]	@ 0x7c
 80021ae:	e9d7 891e 	ldrd	r8, r9, [r7, #120]	@ 0x78
 80021b2:	4642      	mov	r2, r8
 80021b4:	464b      	mov	r3, r9
 80021b6:	1891      	adds	r1, r2, r2
 80021b8:	60b9      	str	r1, [r7, #8]
 80021ba:	415b      	adcs	r3, r3
 80021bc:	60fb      	str	r3, [r7, #12]
 80021be:	e9d7 2302 	ldrd	r2, r3, [r7, #8]
 80021c2:	4641      	mov	r1, r8
 80021c4:	1851      	adds	r1, r2, r1
 80021c6:	6039      	str	r1, [r7, #0]
 80021c8:	4649      	mov	r1, r9
 80021ca:	414b      	adcs	r3, r1
 80021cc:	607b      	str	r3, [r7, #4]
 80021ce:	f04f 0200 	mov.w	r2, #0
 80021d2:	f04f 0300 	mov.w	r3, #0
 80021d6:	e9d7 ab00 	ldrd	sl, fp, [r7]
 80021da:	4659      	mov	r1, fp
 80021dc:	00cb      	lsls	r3, r1, #3
 80021de:	4651      	mov	r1, sl
 80021e0:	ea43 7351 	orr.w	r3, r3, r1, lsr #29
 80021e4:	4651      	mov	r1, sl
 80021e6:	00ca      	lsls	r2, r1, #3
 80021e8:	4610      	mov	r0, r2
 80021ea:	4619      	mov	r1, r3
 80021ec:	4603      	mov	r3, r0
 80021ee:	4642      	mov	r2, r8
 80021f0:	189b      	adds	r3, r3, r2
 80021f2:	673b      	str	r3, [r7, #112]	@ 0x70
 80021f4:	464b      	mov	r3, r9
 80021f6:	460a      	mov	r2, r1
 80021f8:	eb42 0303 	adc.w	r3, r2, r3
 80021fc:	677b      	str	r3, [r7, #116]	@ 0x74
 80021fe:	f8d7 30f0 	ldr.w	r3, [r7, #240]	@ 0xf0
 8002202:	2200      	movs	r2, #0
 8002204:	66bb      	str	r3, [r7, #104]	@ 0x68
 8002206:	66fa      	str	r2, [r7, #108]	@ 0x6c
 8002208:	f04f 0200 	mov.w	r2, #0
 800220c:	f04f 0300 	mov.w	r3, #0
 8002210:	e9d7 891a 	ldrd	r8, r9, [r7, #104]	@ 0x68
 8002214:	4649      	mov	r1, r9
 8002216:	008b      	lsls	r3, r1, #2
 8002218:	4641      	mov	r1, r8
 800221a:	ea43 7391 	orr.w	r3, r3, r1, lsr #30
 800221e:	4641      	mov	r1, r8
 8002220:	008a      	lsls	r2, r1, #2
 8002222:	e9d7 011c 	ldrd	r0, r1, [r7, #112]	@ 0x70
 8002226:	f7fd ffd5 	bl	80001d4 <__aeabi_uldivmod>
 800222a:	4602      	mov	r2, r0
 800222c:	460b      	mov	r3, r1
 800222e:	4b0f      	ldr	r3, [pc, #60]	@ (800226c <LL_USART_SetBaudRate+0x458>)
 8002230:	fba3 1302 	umull	r1, r3, r3, r2
 8002234:	095b      	lsrs	r3, r3, #5
 8002236:	2164      	movs	r1, #100	@ 0x64
 8002238:	fb01 f303 	mul.w	r3, r1, r3
 800223c:	1ad3      	subs	r3, r2, r3
 800223e:	011b      	lsls	r3, r3, #4
 8002240:	3332      	adds	r3, #50	@ 0x32
 8002242:	4a0a      	ldr	r2, [pc, #40]	@ (800226c <LL_USART_SetBaudRate+0x458>)
 8002244:	fba2 2303 	umull	r2, r3, r2, r3
 8002248:	095b      	lsrs	r3, r3, #5
 800224a:	b29b      	uxth	r3, r3
 800224c:	f003 030f 	and.w	r3, r3, #15
 8002250:	b29b      	uxth	r3, r3
 8002252:	4423      	add	r3, r4
 8002254:	b29b      	uxth	r3, r3
 8002256:	461a      	mov	r2, r3
 8002258:	f8d7 30fc 	ldr.w	r3, [r7, #252]	@ 0xfc
 800225c:	609a      	str	r2, [r3, #8]
}
 800225e:	bf00      	nop
 8002260:	f507 7780 	add.w	r7, r7, #256	@ 0x100
 8002264:	46bd      	mov	sp, r7
 8002266:	e8bd 8fb0 	ldmia.w	sp!, {r4, r5, r7, r8, r9, sl, fp, pc}
 800226a:	bf00      	nop
 800226c:	51eb851f 	.word	0x51eb851f

08002270 <LL_USART_Init>:
  * @retval An ErrorStatus enumeration value:
  *          - SUCCESS: USART registers are initialized according to USART_InitStruct content
  *          - ERROR: Problem occurred during USART Registers initialization
  */
ErrorStatus LL_USART_Init(USART_TypeDef *USARTx, const LL_USART_InitTypeDef *USART_InitStruct)
{
 8002270:	b580      	push	{r7, lr}
 8002272:	b088      	sub	sp, #32
 8002274:	af00      	add	r7, sp, #0
 8002276:	6078      	str	r0, [r7, #4]
 8002278:	6039      	str	r1, [r7, #0]
  ErrorStatus status = ERROR;
 800227a:	2301      	movs	r3, #1
 800227c:	77fb      	strb	r3, [r7, #31]
  uint32_t periphclk = LL_RCC_PERIPH_FREQUENCY_NO;
 800227e:	2300      	movs	r3, #0
 8002280:	61bb      	str	r3, [r7, #24]
  assert_param(IS_LL_USART_HWCONTROL(USART_InitStruct->HardwareFlowControl));
  assert_param(IS_LL_USART_OVERSAMPLING(USART_InitStruct->OverSampling));

  /* USART needs to be in disabled state, in order to be able to configure some bits in
     CRx registers */
  if (LL_USART_IsEnabled(USARTx) == 0U)
 8002282:	6878      	ldr	r0, [r7, #4]
 8002284:	f7ff fd8c 	bl	8001da0 <LL_USART_IsEnabled>
 8002288:	4603      	mov	r3, r0
 800228a:	2b00      	cmp	r3, #0
 800228c:	d149      	bne.n	8002322 <LL_USART_Init+0xb2>
     * - DataWidth:          USART_CR1_M bits according to USART_InitStruct->DataWidth value
     * - Parity:             USART_CR1_PCE, USART_CR1_PS bits according to USART_InitStruct->Parity value
     * - TransferDirection:  USART_CR1_TE, USART_CR1_RE bits according to USART_InitStruct->TransferDirection value
     * - Oversampling:       USART_CR1_OVER8 bit according to USART_InitStruct->OverSampling value.
     */
    MODIFY_REG(USARTx->CR1,
 800228e:	687b      	ldr	r3, [r7, #4]
 8002290:	68db      	ldr	r3, [r3, #12]
 8002292:	f423 4316 	bic.w	r3, r3, #38400	@ 0x9600
 8002296:	f023 030c 	bic.w	r3, r3, #12
 800229a:	683a      	ldr	r2, [r7, #0]
 800229c:	6851      	ldr	r1, [r2, #4]
 800229e:	683a      	ldr	r2, [r7, #0]
 80022a0:	68d2      	ldr	r2, [r2, #12]
 80022a2:	4311      	orrs	r1, r2
 80022a4:	683a      	ldr	r2, [r7, #0]
 80022a6:	6912      	ldr	r2, [r2, #16]
 80022a8:	4311      	orrs	r1, r2
 80022aa:	683a      	ldr	r2, [r7, #0]
 80022ac:	6992      	ldr	r2, [r2, #24]
 80022ae:	430a      	orrs	r2, r1
 80022b0:	431a      	orrs	r2, r3
 80022b2:	687b      	ldr	r3, [r7, #4]
 80022b4:	60da      	str	r2, [r3, #12]
    /*---------------------------- USART CR2 Configuration -----------------------
     * Configure USARTx CR2 (Stop bits) with parameters:
     * - Stop Bits:          USART_CR2_STOP bits according to USART_InitStruct->StopBits value.
     * - CLKEN, CPOL, CPHA and LBCL bits are to be configured using LL_USART_ClockInit().
     */
    LL_USART_SetStopBitsLength(USARTx, USART_InitStruct->StopBits);
 80022b6:	683b      	ldr	r3, [r7, #0]
 80022b8:	689b      	ldr	r3, [r3, #8]
 80022ba:	4619      	mov	r1, r3
 80022bc:	6878      	ldr	r0, [r7, #4]
 80022be:	f7ff fd83 	bl	8001dc8 <LL_USART_SetStopBitsLength>

    /*---------------------------- USART CR3 Configuration -----------------------
     * Configure USARTx CR3 (Hardware Flow Control) with parameters:
     * - HardwareFlowControl: USART_CR3_RTSE, USART_CR3_CTSE bits according to USART_InitStruct->HardwareFlowControl value.
     */
    LL_USART_SetHWFlowCtrl(USARTx, USART_InitStruct->HardwareFlowControl);
 80022c2:	683b      	ldr	r3, [r7, #0]
 80022c4:	695b      	ldr	r3, [r3, #20]
 80022c6:	4619      	mov	r1, r3
 80022c8:	6878      	ldr	r0, [r7, #4]
 80022ca:	f7ff fd90 	bl	8001dee <LL_USART_SetHWFlowCtrl>

    /*---------------------------- USART BRR Configuration -----------------------
     * Retrieve Clock frequency used for USART Peripheral
     */
    LL_RCC_GetSystemClocksFreq(&rcc_clocks);
 80022ce:	f107 0308 	add.w	r3, r7, #8
 80022d2:	4618      	mov	r0, r3
 80022d4:	f7ff f9e0 	bl	8001698 <LL_RCC_GetSystemClocksFreq>
    if (USARTx == USART1)
 80022d8:	687b      	ldr	r3, [r7, #4]
 80022da:	4a14      	ldr	r2, [pc, #80]	@ (800232c <LL_USART_Init+0xbc>)
 80022dc:	4293      	cmp	r3, r2
 80022de:	d102      	bne.n	80022e6 <LL_USART_Init+0x76>
    {
      periphclk = rcc_clocks.PCLK2_Frequency;
 80022e0:	697b      	ldr	r3, [r7, #20]
 80022e2:	61bb      	str	r3, [r7, #24]
 80022e4:	e00c      	b.n	8002300 <LL_USART_Init+0x90>
    }
    else if (USARTx == USART2)
 80022e6:	687b      	ldr	r3, [r7, #4]
 80022e8:	4a11      	ldr	r2, [pc, #68]	@ (8002330 <LL_USART_Init+0xc0>)
 80022ea:	4293      	cmp	r3, r2
 80022ec:	d102      	bne.n	80022f4 <LL_USART_Init+0x84>
    {
      periphclk = rcc_clocks.PCLK1_Frequency;
 80022ee:	693b      	ldr	r3, [r7, #16]
 80022f0:	61bb      	str	r3, [r7, #24]
 80022f2:	e005      	b.n	8002300 <LL_USART_Init+0x90>
    {
      periphclk = rcc_clocks.PCLK1_Frequency;
    }
#endif /* USART3 */
#if defined(USART6)
    else if (USARTx == USART6)
 80022f4:	687b      	ldr	r3, [r7, #4]
 80022f6:	4a0f      	ldr	r2, [pc, #60]	@ (8002334 <LL_USART_Init+0xc4>)
 80022f8:	4293      	cmp	r3, r2
 80022fa:	d101      	bne.n	8002300 <LL_USART_Init+0x90>
    {
      periphclk = rcc_clocks.PCLK2_Frequency;
 80022fc:	697b      	ldr	r3, [r7, #20]
 80022fe:	61bb      	str	r3, [r7, #24]

    /* Configure the USART Baud Rate :
       - valid baud rate value (different from 0) is required
       - Peripheral clock as returned by RCC service, should be valid (different from 0).
    */
    if ((periphclk != LL_RCC_PERIPH_FREQUENCY_NO)
 8002300:	69bb      	ldr	r3, [r7, #24]
 8002302:	2b00      	cmp	r3, #0
 8002304:	d00d      	beq.n	8002322 <LL_USART_Init+0xb2>
        && (USART_InitStruct->BaudRate != 0U))
 8002306:	683b      	ldr	r3, [r7, #0]
 8002308:	681b      	ldr	r3, [r3, #0]
 800230a:	2b00      	cmp	r3, #0
 800230c:	d009      	beq.n	8002322 <LL_USART_Init+0xb2>
    {
      status = SUCCESS;
 800230e:	2300      	movs	r3, #0
 8002310:	77fb      	strb	r3, [r7, #31]
      LL_USART_SetBaudRate(USARTx,
                           periphclk,
                           USART_InitStruct->OverSampling,
 8002312:	683b      	ldr	r3, [r7, #0]
 8002314:	699a      	ldr	r2, [r3, #24]
                           USART_InitStruct->BaudRate);
 8002316:	683b      	ldr	r3, [r7, #0]
 8002318:	681b      	ldr	r3, [r3, #0]
      LL_USART_SetBaudRate(USARTx,
 800231a:	69b9      	ldr	r1, [r7, #24]
 800231c:	6878      	ldr	r0, [r7, #4]
 800231e:	f7ff fd79 	bl	8001e14 <LL_USART_SetBaudRate>
      assert_param(IS_LL_USART_BRR_MIN(USARTx->BRR));
    }
  }
  /* Endif (=> USART not in Disabled state => return ERROR) */

  return (status);
 8002322:	7ffb      	ldrb	r3, [r7, #31]
}
 8002324:	4618      	mov	r0, r3
 8002326:	3720      	adds	r7, #32
 8002328:	46bd      	mov	sp, r7
 800232a:	bd80      	pop	{r7, pc}
 800232c:	40011000 	.word	0x40011000
 8002330:	40004400 	.word	0x40004400
 8002334:	40011400 	.word	0x40011400

08002338 <LL_InitTick>:
  *         configuration by calling this function, for a delay use rather osDelay RTOS service.
  * @param  Ticks Frequency of Ticks (Hz)
  * @retval None
  */
__STATIC_INLINE void LL_InitTick(uint32_t HCLKFrequency, uint32_t Ticks)
{
 8002338:	b480      	push	{r7}
 800233a:	b083      	sub	sp, #12
 800233c:	af00      	add	r7, sp, #0
 800233e:	6078      	str	r0, [r7, #4]
 8002340:	6039      	str	r1, [r7, #0]
  /* Configure the SysTick to have interrupt in 1ms time base */
  SysTick->LOAD  = (uint32_t)((HCLKFrequency / Ticks) - 1UL);  /* set reload register */
 8002342:	687a      	ldr	r2, [r7, #4]
 8002344:	683b      	ldr	r3, [r7, #0]
 8002346:	fbb2 f3f3 	udiv	r3, r2, r3
 800234a:	4a07      	ldr	r2, [pc, #28]	@ (8002368 <LL_InitTick+0x30>)
 800234c:	3b01      	subs	r3, #1
 800234e:	6053      	str	r3, [r2, #4]
  SysTick->VAL   = 0UL;                                       /* Load the SysTick Counter Value */
 8002350:	4b05      	ldr	r3, [pc, #20]	@ (8002368 <LL_InitTick+0x30>)
 8002352:	2200      	movs	r2, #0
 8002354:	609a      	str	r2, [r3, #8]
  SysTick->CTRL  = SysTick_CTRL_CLKSOURCE_Msk |
 8002356:	4b04      	ldr	r3, [pc, #16]	@ (8002368 <LL_InitTick+0x30>)
 8002358:	2205      	movs	r2, #5
 800235a:	601a      	str	r2, [r3, #0]
                   SysTick_CTRL_ENABLE_Msk;                   /* Enable the Systick Timer */
}
 800235c:	bf00      	nop
 800235e:	370c      	adds	r7, #12
 8002360:	46bd      	mov	sp, r7
 8002362:	f85d 7b04 	ldr.w	r7, [sp], #4
 8002366:	4770      	bx	lr
 8002368:	e000e010 	.word	0xe000e010

0800236c <LL_Init1msTick>:
  * @param  HCLKFrequency HCLK frequency in Hz
  * @note   HCLK frequency can be calculated thanks to RCC helper macro or function @ref LL_RCC_GetSystemClocksFreq
  * @retval None
  */
void LL_Init1msTick(uint32_t HCLKFrequency)
{
 800236c:	b580      	push	{r7, lr}
 800236e:	b082      	sub	sp, #8
 8002370:	af00      	add	r7, sp, #0
 8002372:	6078      	str	r0, [r7, #4]
  /* Use frequency provided in argument */
  LL_InitTick(HCLKFrequency, 1000U);
 8002374:	f44f 717a 	mov.w	r1, #1000	@ 0x3e8
 8002378:	6878      	ldr	r0, [r7, #4]
 800237a:	f7ff ffdd 	bl	8002338 <LL_InitTick>
}
 800237e:	bf00      	nop
 8002380:	3708      	adds	r7, #8
 8002382:	46bd      	mov	sp, r7
 8002384:	bd80      	pop	{r7, pc}
	...

08002388 <LL_SetSystemCoreClock>:
  * @note   Variable can be calculated also through SystemCoreClockUpdate function.
  * @param  HCLKFrequency HCLK frequency in Hz (can be calculated thanks to RCC helper macro)
  * @retval None
  */
void LL_SetSystemCoreClock(uint32_t HCLKFrequency)
{
 8002388:	b480      	push	{r7}
 800238a:	b083      	sub	sp, #12
 800238c:	af00      	add	r7, sp, #0
 800238e:	6078      	str	r0, [r7, #4]
  /* HCLK clock frequency */
  SystemCoreClock = HCLKFrequency;
 8002390:	4a04      	ldr	r2, [pc, #16]	@ (80023a4 <LL_SetSystemCoreClock+0x1c>)
 8002392:	687b      	ldr	r3, [r7, #4]
 8002394:	6013      	str	r3, [r2, #0]
}
 8002396:	bf00      	nop
 8002398:	370c      	adds	r7, #12
 800239a:	46bd      	mov	sp, r7
 800239c:	f85d 7b04 	ldr.w	r7, [sp], #4
 80023a0:	4770      	bx	lr
 80023a2:	bf00      	nop
 80023a4:	20000004 	.word	0x20000004

080023a8 <memset>:
 80023a8:	4402      	add	r2, r0
 80023aa:	4603      	mov	r3, r0
 80023ac:	4293      	cmp	r3, r2
 80023ae:	d100      	bne.n	80023b2 <memset+0xa>
 80023b0:	4770      	bx	lr
 80023b2:	f803 1b01 	strb.w	r1, [r3], #1
 80023b6:	e7f9      	b.n	80023ac <memset+0x4>

080023b8 <__libc_init_array>:
 80023b8:	b570      	push	{r4, r5, r6, lr}
 80023ba:	4d0d      	ldr	r5, [pc, #52]	@ (80023f0 <__libc_init_array+0x38>)
 80023bc:	4c0d      	ldr	r4, [pc, #52]	@ (80023f4 <__libc_init_array+0x3c>)
 80023be:	1b64      	subs	r4, r4, r5
 80023c0:	10a4      	asrs	r4, r4, #2
 80023c2:	2600      	movs	r6, #0
 80023c4:	42a6      	cmp	r6, r4
 80023c6:	d109      	bne.n	80023dc <__libc_init_array+0x24>
 80023c8:	4d0b      	ldr	r5, [pc, #44]	@ (80023f8 <__libc_init_array+0x40>)
 80023ca:	4c0c      	ldr	r4, [pc, #48]	@ (80023fc <__libc_init_array+0x44>)
 80023cc:	f000 f818 	bl	8002400 <_init>
 80023d0:	1b64      	subs	r4, r4, r5
 80023d2:	10a4      	asrs	r4, r4, #2
 80023d4:	2600      	movs	r6, #0
 80023d6:	42a6      	cmp	r6, r4
 80023d8:	d105      	bne.n	80023e6 <__libc_init_array+0x2e>
 80023da:	bd70      	pop	{r4, r5, r6, pc}
 80023dc:	f855 3b04 	ldr.w	r3, [r5], #4
 80023e0:	4798      	blx	r3
 80023e2:	3601      	adds	r6, #1
 80023e4:	e7ee      	b.n	80023c4 <__libc_init_array+0xc>
 80023e6:	f855 3b04 	ldr.w	r3, [r5], #4
 80023ea:	4798      	blx	r3
 80023ec:	3601      	adds	r6, #1
 80023ee:	e7f2      	b.n	80023d6 <__libc_init_array+0x1e>
 80023f0:	08002448 	.word	0x08002448
 80023f4:	08002448 	.word	0x08002448
 80023f8:	08002448 	.word	0x08002448
 80023fc:	0800244c 	.word	0x0800244c

08002400 <_init>:
 8002400:	b5f8      	push	{r3, r4, r5, r6, r7, lr}
 8002402:	bf00      	nop
 8002404:	bcf8      	pop	{r3, r4, r5, r6, r7}
 8002406:	bc08      	pop	{r3}
 8002408:	469e      	mov	lr, r3
 800240a:	4770      	bx	lr

0800240c <_fini>:
 800240c:	b5f8      	push	{r3, r4, r5, r6, r7, lr}
 800240e:	bf00      	nop
 8002410:	bcf8      	pop	{r3, r4, r5, r6, r7}
 8002412:	bc08      	pop	{r3}
 8002414:	469e      	mov	lr, r3
 8002416:	4770      	bx	lr
